ARM GAS  C:\Users\Gary\AppData\Local\Temp\ccs84DG0.s 			page 1


   1              		.cpu cortex-m0
   2              		.fpu softvfp
   3              		.eabi_attribute 20, 1
   4              		.eabi_attribute 21, 1
   5              		.eabi_attribute 23, 3
   6              		.eabi_attribute 24, 1
   7              		.eabi_attribute 25, 1
   8              		.eabi_attribute 26, 1
   9              		.eabi_attribute 30, 1
  10              		.eabi_attribute 34, 0
  11              		.eabi_attribute 18, 4
  12              		.code	16
  13              		.file	"main.c"
  14              		.text
  15              	.Ltext0:
  16              		.cfi_sections	.debug_frame
  17              		.section	.text.readString,"ax",%progbits
  18              		.align	2
  19              		.global	readString
  20              		.code	16
  21              		.thumb_func
  22              		.type	readString, %function
  23              	readString:
  24              	.LFB33:
  25              		.file 1 ".\\main.c"
   1:.\main.c      **** /* ========================================
   2:.\main.c      ****  *
   3:.\main.c      ****  * Copyright YOUR COMPANY, THE YEAR
   4:.\main.c      ****  * All Rights Reserved
   5:.\main.c      ****  * UNPUBLISHED, LICENSED SOFTWARE.
   6:.\main.c      ****  *
   7:.\main.c      ****  * CONFIDENTIAL AND PROPRIETARY INFORMATION
   8:.\main.c      ****  * WHICH IS THE PROPERTY OF your company.
   9:.\main.c      ****  *
  10:.\main.c      ****  * ========================================
  11:.\main.c      **** */
  12:.\main.c      **** #include <project.h>
  13:.\main.c      **** #include <stdlib.h>
  14:.\main.c      **** #include <stdio.h>
  15:.\main.c      **** 
  16:.\main.c      **** int MAX_BUFFER_SIZE = 25;
  17:.\main.c      **** 
  18:.\main.c      **** /* Read a string from the terminal via the UART. */
  19:.\main.c      **** void readString(char *buffer)
  20:.\main.c      **** {
  26              		.loc 1 20 0
  27              		.cfi_startproc
  28              	.LVL0:
  29 0000 70B5     		push	{r4, r5, r6, lr}
  30              		.cfi_def_cfa_offset 16
  31              		.cfi_offset 4, -16
  32              		.cfi_offset 5, -12
  33              		.cfi_offset 6, -8
  34              		.cfi_offset 14, -4
  35 0002 061C     		mov	r6, r0
  36              	.LVL1:
  37              	.L2:
ARM GAS  C:\Users\Gary\AppData\Local\Temp\ccs84DG0.s 			page 2


  21:.\main.c      ****     uint32 rxData;
  22:.\main.c      ****     char *ptr = buffer;
  23:.\main.c      ****     for(;;){
  24:.\main.c      ****         rxData = UART_1_GetChar();
  38              		.loc 1 24 0
  39 0004 FFF7FEFF 		bl	UART_1_GetChar
  40              	.LVL2:
  41 0008 051E     		sub	r5, r0, #0
  42              	.LVL3:
  25:.\main.c      ****         if(rxData){
  43              		.loc 1 25 0
  44 000a FBD0     		beq	.L2
  26:.\main.c      ****             UART_1_PutChar(rxData); /* Echo character. */
  45              		.loc 1 26 0
  46 000c FFF7FEFF 		bl	UART_1_PutChar
  47              	.LVL4:
  27:.\main.c      ****             /* On a carriage return, null terminate the string
  28:.\main.c      ****             and break out of the loop. */
  29:.\main.c      ****             if(rxData == '\r'){
  48              		.loc 1 29 0
  49 0010 0D2D     		cmp	r5, #13
  50 0012 02D1     		bne	.L3
  30:.\main.c      ****                 *ptr = '\0';
  51              		.loc 1 30 0
  52 0014 0023     		mov	r3, #0
  53 0016 3370     		strb	r3, [r6]
  54 0018 02E0     		b	.L5
  55              	.L3:
  31:.\main.c      ****                 break;
  32:.\main.c      ****             }
  33:.\main.c      ****             *ptr = rxData;
  56              		.loc 1 33 0
  57 001a 3570     		strb	r5, [r6]
  34:.\main.c      ****             ptr++;
  58              		.loc 1 34 0
  59 001c 0136     		add	r6, r6, #1
  60              	.LVL5:
  61 001e F1E7     		b	.L2
  62              	.L5:
  35:.\main.c      ****         }
  36:.\main.c      ****     }
  37:.\main.c      **** }
  63              		.loc 1 37 0
  64              		@ sp needed
  65              	.LVL6:
  66              	.LVL7:
  67 0020 70BD     		pop	{r4, r5, r6, pc}
  68              		.cfi_endproc
  69              	.LFE33:
  70              		.size	readString, .-readString
  71 0022 C046     		.section	.text.compareStrings,"ax",%progbits
  72              		.align	2
  73              		.global	compareStrings
  74              		.code	16
  75              		.thumb_func
  76              		.type	compareStrings, %function
  77              	compareStrings:
ARM GAS  C:\Users\Gary\AppData\Local\Temp\ccs84DG0.s 			page 3


  78              	.LFB34:
  38:.\main.c      **** 
  39:.\main.c      **** int compareStrings(char *str1, char *str2)
  40:.\main.c      **** {
  79              		.loc 1 40 0
  80              		.cfi_startproc
  81              	.LVL8:
  82 0000 70B5     		push	{r4, r5, r6, lr}
  83              		.cfi_def_cfa_offset 16
  84              		.cfi_offset 4, -16
  85              		.cfi_offset 5, -12
  86              		.cfi_offset 6, -8
  87              		.cfi_offset 14, -4
  88 0002 041C     		mov	r4, r0
  89 0004 0D1C     		mov	r5, r1
  41:.\main.c      ****     UART_1_PutString("Enter the first string: ");
  90              		.loc 1 41 0
  91 0006 1F48     		ldr	r0, .L19
  92              	.LVL9:
  93 0008 FFF7FEFF 		bl	UART_1_PutString
  94              	.LVL10:
  42:.\main.c      ****     readString(str1);
  95              		.loc 1 42 0
  96 000c 201C     		mov	r0, r4
  97 000e FFF7FEFF 		bl	readString
  98              	.LVL11:
  43:.\main.c      ****     UART_1_PutString("\n\r");
  99              		.loc 1 43 0
 100 0012 1D4E     		ldr	r6, .L19+4
 101 0014 301C     		mov	r0, r6
 102 0016 FFF7FEFF 		bl	UART_1_PutString
 103              	.LVL12:
  44:.\main.c      ****     UART_1_PutString("Enter the second string: ");
 104              		.loc 1 44 0
 105 001a 1C48     		ldr	r0, .L19+8
 106 001c FFF7FEFF 		bl	UART_1_PutString
 107              	.LVL13:
  45:.\main.c      ****     readString(str2);
 108              		.loc 1 45 0
 109 0020 281C     		mov	r0, r5
 110 0022 FFF7FEFF 		bl	readString
 111              	.LVL14:
  46:.\main.c      ****     UART_1_PutString("\n\r");
 112              		.loc 1 46 0
 113 0026 301C     		mov	r0, r6
 114 0028 FFF7FEFF 		bl	UART_1_PutString
 115              	.LVL15:
  47:.\main.c      ****     
  48:.\main.c      ****     char out = '0';
  49:.\main.c      ****     int i = 0;
 116              		.loc 1 49 0
 117 002c 0022     		mov	r2, #0
  50:.\main.c      ****     int length1;
  51:.\main.c      ****     int length2;
  52:.\main.c      ****     int length;
  53:.\main.c      ****     
  54:.\main.c      ****     // Get length of first string
ARM GAS  C:\Users\Gary\AppData\Local\Temp\ccs84DG0.s 			page 4


  55:.\main.c      ****     while(str1[i]!='\0'){
 118              		.loc 1 55 0
 119 002e 00E0     		b	.L7
 120              	.LVL16:
 121              	.L8:
  56:.\main.c      ****         i++;
 122              		.loc 1 56 0
 123 0030 0132     		add	r2, r2, #1
 124              	.LVL17:
 125              	.L7:
  55:.\main.c      ****         i++;
 126              		.loc 1 55 0
 127 0032 A35C     		ldrb	r3, [r4, r2]
 128 0034 002B     		cmp	r3, #0
 129 0036 FBD1     		bne	.L8
 130              	.LVL18:
  57:.\main.c      ****     }
  58:.\main.c      ****     length1 = i;
  59:.\main.c      ****     i = 0;
  60:.\main.c      **** 
  61:.\main.c      ****     // Get length of second string
  62:.\main.c      ****     while(str2[i]!='\0'){
 131              		.loc 1 62 0
 132 0038 00E0     		b	.L9
 133              	.LVL19:
 134              	.L10:
  63:.\main.c      ****         i++;
 135              		.loc 1 63 0
 136 003a 0133     		add	r3, r3, #1
 137              	.LVL20:
 138              	.L9:
  62:.\main.c      ****         i++;
 139              		.loc 1 62 0
 140 003c E95C     		ldrb	r1, [r5, r3]
 141 003e 0029     		cmp	r1, #0
 142 0040 FBD1     		bne	.L10
 143              	.LVL21:
  64:.\main.c      ****     }
  65:.\main.c      ****     length2 = i;
  66:.\main.c      ****     
  67:.\main.c      ****     if(length1 != length2){
 144              		.loc 1 67 0
 145 0042 9A42     		cmp	r2, r3
 146 0044 1AD1     		bne	.L17
  68:.\main.c      ****         return -1;
  69:.\main.c      ****     }
  70:.\main.c      ****     
  71:.\main.c      ****     // Limit length of for loop to the length of the shortest string
  72:.\main.c      ****     if(length1 < length2){
 147              		.loc 1 72 0
 148 0046 03DB     		blt	.L12
  73:.\main.c      ****         length = length1;
  74:.\main.c      ****     }else if(length1 > length2){
 149              		.loc 1 74 0
 150 0048 01DC     		bgt	.L18
 151 004a 0022     		mov	r2, #0
 152              	.LVL22:
ARM GAS  C:\Users\Gary\AppData\Local\Temp\ccs84DG0.s 			page 5


 153 004c 00E0     		b	.L12
 154              	.LVL23:
 155              	.L18:
  75:.\main.c      ****         length = length2;
 156              		.loc 1 75 0
 157 004e 1A1C     		mov	r2, r3
 158              	.LVL24:
 159              	.L12:
  76:.\main.c      ****     }
  77:.\main.c      ****     
  78:.\main.c      ****     // If there is a difference in the strings compare the results and return it
  79:.\main.c      ****     for (i = 0; i < length; i++){
 160              		.loc 1 79 0
 161 0050 0023     		mov	r3, #0
 162              	.LVL25:
 163 0052 0FE0     		b	.L13
 164              	.LVL26:
 165              	.L16:
  80:.\main.c      ****         if (str1[i] > str2[i]){
 166              		.loc 1 80 0
 167 0054 E05C     		ldrb	r0, [r4, r3]
 168 0056 E95C     		ldrb	r1, [r5, r3]
 169 0058 8842     		cmp	r0, r1
 170 005a 03D9     		bls	.L14
  81:.\main.c      ****             out = str1[i] - str2[i] + 'a' - 1 - '0';
 171              		.loc 1 81 0
 172 005c 401A     		sub	r0, r0, r1
 173 005e 3030     		add	r0, r0, #48
 174 0060 C0B2     		uxtb	r0, r0
 175              	.LVL27:
  82:.\main.c      ****             return out;
 176              		.loc 1 82 0
 177 0062 0DE0     		b	.L11
 178              	.LVL28:
 179              	.L14:
  83:.\main.c      ****         }else if (str1[i] < str2[i]){
 180              		.loc 1 83 0
 181 0064 8842     		cmp	r0, r1
 182 0066 04D2     		bcs	.L15
  84:.\main.c      ****             out = str2[i] - str1[i] + 'a' - 1 - '0';
 183              		.loc 1 84 0
 184 0068 081A     		sub	r0, r1, r0
 185 006a 011C     		mov	r1, r0
 186 006c 3031     		add	r1, r1, #48
 187 006e C8B2     		uxtb	r0, r1
 188              	.LVL29:
  85:.\main.c      ****             return out;
 189              		.loc 1 85 0
 190 0070 06E0     		b	.L11
 191              	.LVL30:
 192              	.L15:
  79:.\main.c      ****         if (str1[i] > str2[i]){
 193              		.loc 1 79 0 discriminator 2
 194 0072 0133     		add	r3, r3, #1
 195              	.LVL31:
 196              	.L13:
  79:.\main.c      ****         if (str1[i] > str2[i]){
ARM GAS  C:\Users\Gary\AppData\Local\Temp\ccs84DG0.s 			page 6


 197              		.loc 1 79 0 is_stmt 0 discriminator 1
 198 0074 9342     		cmp	r3, r2
 199 0076 EDDB     		blt	.L16
  86:.\main.c      ****         }
  87:.\main.c      ****     }
  88:.\main.c      ****     
  89:.\main.c      ****     return out;
 200              		.loc 1 89 0 is_stmt 1
 201 0078 3020     		mov	r0, #48
 202 007a 01E0     		b	.L11
 203              	.LVL32:
 204              	.L17:
  68:.\main.c      ****     }
 205              		.loc 1 68 0
 206 007c 0120     		mov	r0, #1
 207 007e 4042     		neg	r0, r0
 208              	.LVL33:
 209              	.L11:
  90:.\main.c      **** }
 210              		.loc 1 90 0
 211              		@ sp needed
 212              	.LVL34:
 213              	.LVL35:
 214 0080 70BD     		pop	{r4, r5, r6, pc}
 215              	.L20:
 216 0082 C046     		.align	2
 217              	.L19:
 218 0084 00000000 		.word	.LC0
 219 0088 1C000000 		.word	.LC2
 220 008c 20000000 		.word	.LC4
 221              		.cfi_endproc
 222              	.LFE34:
 223              		.size	compareStrings, .-compareStrings
 224              		.section	.text.searchForChar,"ax",%progbits
 225              		.align	2
 226              		.global	searchForChar
 227              		.code	16
 228              		.thumb_func
 229              		.type	searchForChar, %function
 230              	searchForChar:
 231              	.LFB35:
  91:.\main.c      **** 
  92:.\main.c      **** int searchForChar(char *str, char *ch)
  93:.\main.c      **** {
 232              		.loc 1 93 0
 233              		.cfi_startproc
 234              	.LVL36:
 235 0000 70B5     		push	{r4, r5, r6, lr}
 236              		.cfi_def_cfa_offset 16
 237              		.cfi_offset 4, -16
 238              		.cfi_offset 5, -12
 239              		.cfi_offset 6, -8
 240              		.cfi_offset 14, -4
 241 0002 041C     		mov	r4, r0
 242 0004 0D1C     		mov	r5, r1
  94:.\main.c      ****     UART_1_PutString("Enter the first string: ");
 243              		.loc 1 94 0
ARM GAS  C:\Users\Gary\AppData\Local\Temp\ccs84DG0.s 			page 7


 244 0006 1348     		ldr	r0, .L28
 245              	.LVL37:
 246 0008 FFF7FEFF 		bl	UART_1_PutString
 247              	.LVL38:
  95:.\main.c      ****     readString(str);
 248              		.loc 1 95 0
 249 000c 201C     		mov	r0, r4
 250 000e FFF7FEFF 		bl	readString
 251              	.LVL39:
  96:.\main.c      ****     UART_1_PutString("\n\r");
 252              		.loc 1 96 0
 253 0012 114E     		ldr	r6, .L28+4
 254 0014 301C     		mov	r0, r6
 255 0016 FFF7FEFF 		bl	UART_1_PutString
 256              	.LVL40:
  97:.\main.c      ****     UART_1_PutString("Enter the second string: ");
 257              		.loc 1 97 0
 258 001a 1048     		ldr	r0, .L28+8
 259 001c FFF7FEFF 		bl	UART_1_PutString
 260              	.LVL41:
  98:.\main.c      ****     readString(ch);
 261              		.loc 1 98 0
 262 0020 281C     		mov	r0, r5
 263 0022 FFF7FEFF 		bl	readString
 264              	.LVL42:
  99:.\main.c      ****     UART_1_PutString("\n\r");
 265              		.loc 1 99 0
 266 0026 301C     		mov	r0, r6
 267 0028 FFF7FEFF 		bl	UART_1_PutString
 268              	.LVL43:
 100:.\main.c      ****     
 101:.\main.c      ****     int length;
 102:.\main.c      ****     int out = -1;
 103:.\main.c      ****     int i = 0;
 269              		.loc 1 103 0
 270 002c 0023     		mov	r3, #0
 104:.\main.c      ****     
 105:.\main.c      ****         // Get length of first string
 106:.\main.c      ****     while(str[i]!='\0'){
 271              		.loc 1 106 0
 272 002e 00E0     		b	.L22
 273              	.LVL44:
 274              	.L23:
 107:.\main.c      ****         i++;
 275              		.loc 1 107 0
 276 0030 0133     		add	r3, r3, #1
 277              	.LVL45:
 278              	.L22:
 106:.\main.c      ****         i++;
 279              		.loc 1 106 0
 280 0032 E25C     		ldrb	r2, [r4, r3]
 281 0034 002A     		cmp	r2, #0
 282 0036 FBD1     		bne	.L23
 283              	.LVL46:
 108:.\main.c      ****     }
 109:.\main.c      ****     length = i;
 110:.\main.c      ****     
ARM GAS  C:\Users\Gary\AppData\Local\Temp\ccs84DG0.s 			page 8


 111:.\main.c      ****     for (i = 0; i < length; i++){
 284              		.loc 1 111 0
 285 0038 0020     		mov	r0, #0
 286 003a 06E0     		b	.L24
 287              	.LVL47:
 288              	.L27:
 112:.\main.c      ****         if(str[i] == ch[0]){
 289              		.loc 1 112 0
 290 003c 215C     		ldrb	r1, [r4, r0]
 291 003e 2A78     		ldrb	r2, [r5]
 292 0040 9142     		cmp	r1, r2
 293 0042 01D1     		bne	.L25
 113:.\main.c      ****             out = i + 'a' - 1 - '0';
 294              		.loc 1 113 0
 295 0044 3030     		add	r0, r0, #48
 296              	.LVL48:
 114:.\main.c      ****             return out;
 297              		.loc 1 114 0
 298 0046 04E0     		b	.L26
 299              	.LVL49:
 300              	.L25:
 111:.\main.c      ****         if(str[i] == ch[0]){
 301              		.loc 1 111 0 discriminator 2
 302 0048 0130     		add	r0, r0, #1
 303              	.LVL50:
 304              	.L24:
 111:.\main.c      ****         if(str[i] == ch[0]){
 305              		.loc 1 111 0 is_stmt 0 discriminator 1
 306 004a 9842     		cmp	r0, r3
 307 004c F6DB     		blt	.L27
 115:.\main.c      ****         }
 116:.\main.c      ****     }
 117:.\main.c      ****     return out;
 308              		.loc 1 117 0 is_stmt 1
 309 004e 0120     		mov	r0, #1
 310              	.LVL51:
 311 0050 4042     		neg	r0, r0
 312              	.LVL52:
 313              	.L26:
 118:.\main.c      **** }
 314              		.loc 1 118 0
 315              		@ sp needed
 316              	.LVL53:
 317              	.LVL54:
 318 0052 70BD     		pop	{r4, r5, r6, pc}
 319              	.L29:
 320              		.align	2
 321              	.L28:
 322 0054 00000000 		.word	.LC0
 323 0058 1C000000 		.word	.LC2
 324 005c 20000000 		.word	.LC4
 325              		.cfi_endproc
 326              	.LFE35:
 327              		.size	searchForChar, .-searchForChar
 328              		.section	.text.searchSubString,"ax",%progbits
 329              		.align	2
 330              		.global	searchSubString
ARM GAS  C:\Users\Gary\AppData\Local\Temp\ccs84DG0.s 			page 9


 331              		.code	16
 332              		.thumb_func
 333              		.type	searchSubString, %function
 334              	searchSubString:
 335              	.LFB36:
 119:.\main.c      **** 
 120:.\main.c      **** int searchSubString(char *str, char *subStr)
 121:.\main.c      **** {
 336              		.loc 1 121 0
 337              		.cfi_startproc
 338              	.LVL55:
 339 0000 F0B5     		push	{r4, r5, r6, r7, lr}
 340              		.cfi_def_cfa_offset 20
 341              		.cfi_offset 4, -20
 342              		.cfi_offset 5, -16
 343              		.cfi_offset 6, -12
 344              		.cfi_offset 7, -8
 345              		.cfi_offset 14, -4
 346 0002 4746     		mov	r7, r8
 347 0004 80B4     		push	{r7}
 348              		.cfi_def_cfa_offset 24
 349              		.cfi_offset 8, -24
 350 0006 061C     		mov	r6, r0
 351 0008 0F1C     		mov	r7, r1
 122:.\main.c      ****     UART_1_PutString("Enter the string: ");
 352              		.loc 1 122 0
 353 000a 2148     		ldr	r0, .L44
 354              	.LVL56:
 355 000c FFF7FEFF 		bl	UART_1_PutString
 356              	.LVL57:
 123:.\main.c      ****     readString(str);
 357              		.loc 1 123 0
 358 0010 301C     		mov	r0, r6
 359 0012 FFF7FEFF 		bl	readString
 360              	.LVL58:
 124:.\main.c      ****     UART_1_PutString("\n\r");
 361              		.loc 1 124 0
 362 0016 1F4C     		ldr	r4, .L44+4
 363 0018 201C     		mov	r0, r4
 364 001a FFF7FEFF 		bl	UART_1_PutString
 365              	.LVL59:
 125:.\main.c      ****     UART_1_PutString("Enter the sub string: ");
 366              		.loc 1 125 0
 367 001e 1E48     		ldr	r0, .L44+8
 368 0020 FFF7FEFF 		bl	UART_1_PutString
 369              	.LVL60:
 126:.\main.c      ****     readString(subStr);
 370              		.loc 1 126 0
 371 0024 381C     		mov	r0, r7
 372 0026 FFF7FEFF 		bl	readString
 373              	.LVL61:
 127:.\main.c      ****     UART_1_PutString("\n\r");
 374              		.loc 1 127 0
 375 002a 201C     		mov	r0, r4
 376 002c FFF7FEFF 		bl	UART_1_PutString
 377              	.LVL62:
 128:.\main.c      ****     
ARM GAS  C:\Users\Gary\AppData\Local\Temp\ccs84DG0.s 			page 10


 129:.\main.c      ****     int out = -1;
 130:.\main.c      ****     int start = 0;
 131:.\main.c      ****     int offset = 0;
 132:.\main.c      ****     int length;
 133:.\main.c      ****     int subLen;
 134:.\main.c      ****     int i = 0;;
 378              		.loc 1 134 0
 379 0030 0023     		mov	r3, #0
 380 0032 9C46     		mov	ip, r3
 135:.\main.c      ****     int j = 0;;
 136:.\main.c      ****     
 137:.\main.c      ****     // Get length of first string
 138:.\main.c      ****     while(str[i]!='\0'){
 381              		.loc 1 138 0
 382 0034 02E0     		b	.L31
 383              	.LVL63:
 384              	.L32:
 139:.\main.c      ****         i++;
 385              		.loc 1 139 0
 386 0036 0123     		mov	r3, #1
 387 0038 9846     		mov	r8, r3
 388 003a C444     		add	ip, ip, r8
 389              	.LVL64:
 390              	.L31:
 138:.\main.c      ****         i++;
 391              		.loc 1 138 0
 392 003c 6346     		mov	r3, ip
 393 003e F35C     		ldrb	r3, [r6, r3]
 394 0040 002B     		cmp	r3, #0
 395 0042 F8D1     		bne	.L32
 396              	.LVL65:
 140:.\main.c      ****     }
 141:.\main.c      ****     length = i;
 142:.\main.c      ****     i = 0;
 397              		.loc 1 142 0
 398 0044 0022     		mov	r2, #0
 143:.\main.c      **** 
 144:.\main.c      ****     // Get length of second string
 145:.\main.c      ****     while(subStr[i]!='\0'){
 399              		.loc 1 145 0
 400 0046 00E0     		b	.L33
 401              	.LVL66:
 402              	.L34:
 146:.\main.c      ****         i++;
 403              		.loc 1 146 0
 404 0048 0132     		add	r2, r2, #1
 405              	.LVL67:
 406              	.L33:
 145:.\main.c      ****         i++;
 407              		.loc 1 145 0
 408 004a BB5C     		ldrb	r3, [r7, r2]
 409 004c 002B     		cmp	r3, #0
 410 004e FBD1     		bne	.L34
 411              	.LVL68:
 147:.\main.c      ****     }
 148:.\main.c      ****     subLen = i;
 149:.\main.c      ****     
ARM GAS  C:\Users\Gary\AppData\Local\Temp\ccs84DG0.s 			page 11


 150:.\main.c      ****     for (i = 0; i < length; i++){
 412              		.loc 1 150 0
 413 0050 0020     		mov	r0, #0
 130:.\main.c      ****     int offset = 0;
 414              		.loc 1 130 0
 415 0052 9846     		mov	r8, r3
 416              		.loc 1 150 0
 417 0054 15E0     		b	.L35
 418              	.LVL69:
 419              	.L40:
 151:.\main.c      ****         for(j = 0; j < subLen; j++){
 152:.\main.c      ****             if(str[i+offset] != subStr[j]){
 420              		.loc 1 152 0
 421 0056 4418     		add	r4, r0, r1
 422 0058 355D     		ldrb	r5, [r6, r4]
 423 005a FC5C     		ldrb	r4, [r7, r3]
 424 005c A542     		cmp	r5, r4
 425 005e 0FD1     		bne	.L36
 153:.\main.c      ****                 break;
 154:.\main.c      ****             }
 155:.\main.c      ****             if(j == 0){ //str[i] == subStr[0]
 426              		.loc 1 155 0
 427 0060 002B     		cmp	r3, #0
 428 0062 00D1     		bne	.L37
 156:.\main.c      ****                 start = i;
 429              		.loc 1 156 0
 430 0064 8046     		mov	r8, r0
 431              	.LVL70:
 432              	.L37:
 157:.\main.c      ****             }
 158:.\main.c      ****             if(j == (subLen - 1)){ //subStr[j] == '\0'
 433              		.loc 1 158 0
 434 0066 541E     		sub	r4, r2, #1
 435 0068 9C42     		cmp	r4, r3
 436 006a 02D1     		bne	.L38
 159:.\main.c      ****                 out = start + 'a' - 1 - '0';
 437              		.loc 1 159 0
 438 006c 4046     		mov	r0, r8
 439              	.LVL71:
 440 006e 3030     		add	r0, r0, #48
 441              	.LVL72:
 160:.\main.c      ****                 return out;
 442              		.loc 1 160 0
 443 0070 0BE0     		b	.L39
 444              	.LVL73:
 445              	.L38:
 161:.\main.c      ****             }
 162:.\main.c      ****             offset++;
 446              		.loc 1 162 0 discriminator 2
 447 0072 0131     		add	r1, r1, #1
 448              	.LVL74:
 151:.\main.c      ****             if(str[i+offset] != subStr[j]){
 449              		.loc 1 151 0 discriminator 2
 450 0074 0133     		add	r3, r3, #1
 451              	.LVL75:
 452 0076 01E0     		b	.L41
 453              	.LVL76:
ARM GAS  C:\Users\Gary\AppData\Local\Temp\ccs84DG0.s 			page 12


 454              	.L43:
 455 0078 0023     		mov	r3, #0
 456 007a 0021     		mov	r1, #0
 457              	.LVL77:
 458              	.L41:
 151:.\main.c      ****             if(str[i+offset] != subStr[j]){
 459              		.loc 1 151 0 is_stmt 0 discriminator 1
 460 007c 9342     		cmp	r3, r2
 461 007e EADB     		blt	.L40
 462              	.L36:
 463              	.LVL78:
 150:.\main.c      ****         for(j = 0; j < subLen; j++){
 464              		.loc 1 150 0 is_stmt 1 discriminator 2
 465 0080 0130     		add	r0, r0, #1
 466              	.LVL79:
 467              	.L35:
 150:.\main.c      ****         for(j = 0; j < subLen; j++){
 468              		.loc 1 150 0 is_stmt 0 discriminator 1
 469 0082 6045     		cmp	r0, ip
 470 0084 F8DB     		blt	.L43
 163:.\main.c      ****         }
 164:.\main.c      ****         offset = 0;
 165:.\main.c      ****     }
 166:.\main.c      ****     return out;
 471              		.loc 1 166 0 is_stmt 1
 472 0086 0120     		mov	r0, #1
 473              	.LVL80:
 474 0088 4042     		neg	r0, r0
 475              	.LVL81:
 476              	.L39:
 167:.\main.c      **** }
 477              		.loc 1 167 0
 478              		@ sp needed
 479              	.LVL82:
 480              	.LVL83:
 481              	.LVL84:
 482 008a 04BC     		pop	{r2}
 483 008c 9046     		mov	r8, r2
 484 008e F0BD     		pop	{r4, r5, r6, r7, pc}
 485              	.L45:
 486              		.align	2
 487              	.L44:
 488 0090 3C000000 		.word	.LC9
 489 0094 1C000000 		.word	.LC2
 490 0098 50000000 		.word	.LC12
 491              		.cfi_endproc
 492              	.LFE36:
 493              		.size	searchSubString, .-searchSubString
 494              		.section	.text.main,"ax",%progbits
 495              		.align	2
 496              		.global	main
 497              		.code	16
 498              		.thumb_func
 499              		.type	main, %function
 500              	main:
 501              	.LFB37:
 168:.\main.c      **** 
ARM GAS  C:\Users\Gary\AppData\Local\Temp\ccs84DG0.s 			page 13


 169:.\main.c      **** int main()
 170:.\main.c      **** {
 502              		.loc 1 170 0
 503              		.cfi_startproc
 504 0000 F0B5     		push	{r4, r5, r6, r7, lr}
 505              		.cfi_def_cfa_offset 20
 506              		.cfi_offset 4, -20
 507              		.cfi_offset 5, -16
 508              		.cfi_offset 6, -12
 509              		.cfi_offset 7, -8
 510              		.cfi_offset 14, -4
 511 0002 85B0     		sub	sp, sp, #20
 512              		.cfi_def_cfa_offset 40
 513 0004 00AF     		add	r7, sp, #0
 514              		.cfi_def_cfa_register 7
 171:.\main.c      ****     CyGlobalIntEnable; /* Enable global interrupts. */
 515              		.loc 1 171 0
 516              	@ 171 ".\main.c" 1
 517 0006 62B6     		CPSIE   i
 518              	@ 0 "" 2
 172:.\main.c      ****     UART_1_Start(); /* Start the UART component. */
 519              		.loc 1 172 0
 520              		.code	16
 521 0008 FFF7FEFF 		bl	UART_1_Start
 522              	.LVL85:
 173:.\main.c      ****     char choice;
 174:.\main.c      ****     //int choice1;
 175:.\main.c      ****     int status;
 176:.\main.c      ****     char ch[1];
 177:.\main.c      ****     char str[MAX_BUFFER_SIZE], str1[MAX_BUFFER_SIZE], str2[MAX_BUFFER_SIZE], subStr[MAX_BUFFER_SIZE
 523              		.loc 1 177 0
 524 000c 344B     		ldr	r3, .L58
 525 000e 1B68     		ldr	r3, [r3]
 526              	.LVL86:
 527 0010 0733     		add	r3, r3, #7
 528              	.LVL87:
 529 0012 DB08     		lsr	r3, r3, #3
 530 0014 DB00     		lsl	r3, r3, #3
 531 0016 6A46     		mov	r2, sp
 532 0018 D21A     		sub	r2, r2, r3
 533 001a 9546     		mov	sp, r2
 534 001c 6D46     		mov	r5, sp
 535              	.LVL88:
 536 001e D21A     		sub	r2, r2, r3
 537              	.LVL89:
 538 0020 9546     		mov	sp, r2
 539 0022 6E46     		mov	r6, sp
 540              	.LVL90:
 541 0024 D21A     		sub	r2, r2, r3
 542              	.LVL91:
 543 0026 9546     		mov	sp, r2
 544 0028 3A60     		str	r2, [r7]
 545              	.LVL92:
 546 002a D31A     		sub	r3, r2, r3
 547 002c 9D46     		mov	sp, r3
 548 002e 6C46     		mov	r4, sp
 549              	.LVL93:
ARM GAS  C:\Users\Gary\AppData\Local\Temp\ccs84DG0.s 			page 14


 550              	.L47:
 178:.\main.c      ****     
 179:.\main.c      ****     while(1){
 180:.\main.c      ****         UART_1_PutString("Function to execute (1 for string compare, 2 of character search, 3 for s
 551              		.loc 1 180 0
 552 0030 2C48     		ldr	r0, .L58+4
 553 0032 FFF7FEFF 		bl	UART_1_PutString
 554              	.LVL94:
 181:.\main.c      ****         //getchar();
 182:.\main.c      ****         readString(&choice);
 555              		.loc 1 182 0
 556 0036 0F23     		mov	r3, #15
 557 0038 F818     		add	r0, r7, r3
 558 003a FFF7FEFF 		bl	readString
 559              	.LVL95:
 183:.\main.c      ****         UART_1_PutString("\n\r");
 560              		.loc 1 183 0
 561 003e 2A48     		ldr	r0, .L58+8
 562 0040 FFF7FEFF 		bl	UART_1_PutString
 563              	.LVL96:
 184:.\main.c      ****         //choice1 = (int) choice;
 185:.\main.c      ****         
 186:.\main.c      ****         if((int) choice == -1) break;
 187:.\main.c      ****         switch(choice){
 564              		.loc 1 187 0
 565 0044 FB7B     		ldrb	r3, [r7, #15]
 566 0046 322B     		cmp	r3, #50
 567 0048 12D0     		beq	.L49
 568 004a 332B     		cmp	r3, #51
 569 004c 27D0     		beq	.L50
 570 004e 312B     		cmp	r3, #49
 571 0050 3BD1     		bne	.L57
 188:.\main.c      ****             case '1':
 189:.\main.c      ****             /* Read in the strings and store them in str1
 190:.\main.c      ****             and str2. */
 191:.\main.c      ****             status = compareStrings(str1, str2);
 572              		.loc 1 191 0
 573 0052 301C     		mov	r0, r6
 574 0054 3968     		ldr	r1, [r7]
 575 0056 FFF7FEFF 		bl	compareStrings
 576              	.LVL97:
 577 005a 7860     		str	r0, [r7, #4]
 578              	.LVL98:
 192:.\main.c      ****             UART_1_PutString("The string comparions returned ");
 579              		.loc 1 192 0
 580 005c 2348     		ldr	r0, .L58+12
 581              	.LVL99:
 582 005e FFF7FEFF 		bl	UART_1_PutString
 583              	.LVL100:
 193:.\main.c      ****             UART_1_PutChar(status);
 584              		.loc 1 193 0
 585 0062 3879     		ldrb	r0, [r7, #4]
 586 0064 FFF7FEFF 		bl	UART_1_PutChar
 587              	.LVL101:
 194:.\main.c      ****             UART_1_PutString("\n\r");
 588              		.loc 1 194 0
 589 0068 1F48     		ldr	r0, .L58+8
ARM GAS  C:\Users\Gary\AppData\Local\Temp\ccs84DG0.s 			page 15


 590 006a FFF7FEFF 		bl	UART_1_PutString
 591              	.LVL102:
 195:.\main.c      ****             break;
 592              		.loc 1 195 0
 593 006e DFE7     		b	.L47
 594              	.LVL103:
 595              	.L49:
 196:.\main.c      ****             case '2':
 197:.\main.c      ****             /* Read in the string, store it in str1; the
 198:.\main.c      ****             character in ch. */
 199:.\main.c      ****             status = searchForChar(str, ch);
 596              		.loc 1 199 0
 597 0070 281C     		mov	r0, r5
 598 0072 0C23     		mov	r3, #12
 599 0074 F918     		add	r1, r7, r3
 600 0076 FFF7FEFF 		bl	searchForChar
 601              	.LVL104:
 602 007a 7860     		str	r0, [r7, #4]
 603              	.LVL105:
 200:.\main.c      ****             UART_1_PutString("The character is at position ");
 604              		.loc 1 200 0
 605 007c 1C48     		ldr	r0, .L58+16
 606              	.LVL106:
 607 007e FFF7FEFF 		bl	UART_1_PutString
 608              	.LVL107:
 201:.\main.c      ****             if(status >= 0){
 609              		.loc 1 201 0
 610 0082 7B68     		ldr	r3, [r7, #4]
 611 0084 002B     		cmp	r3, #0
 612 0086 03DB     		blt	.L53
 202:.\main.c      ****                 UART_1_PutChar(status);
 613              		.loc 1 202 0
 614 0088 D8B2     		uxtb	r0, r3
 615 008a FFF7FEFF 		bl	UART_1_PutChar
 616              	.LVL108:
 617 008e 02E0     		b	.L54
 618              	.L53:
 203:.\main.c      ****             }else{
 204:.\main.c      ****                 UART_1_PutString("-1");
 619              		.loc 1 204 0
 620 0090 1848     		ldr	r0, .L58+20
 621 0092 FFF7FEFF 		bl	UART_1_PutString
 622              	.LVL109:
 623              	.L54:
 205:.\main.c      ****             }
 206:.\main.c      ****             UART_1_PutString("\n\r");
 624              		.loc 1 206 0
 625 0096 1448     		ldr	r0, .L58+8
 626 0098 FFF7FEFF 		bl	UART_1_PutString
 627              	.LVL110:
 207:.\main.c      ****             break;
 628              		.loc 1 207 0
 629 009c C8E7     		b	.L47
 630              	.LVL111:
 631              	.L50:
 208:.\main.c      ****             case '3':
 209:.\main.c      ****             /* Read in the string, store it in str1; the
ARM GAS  C:\Users\Gary\AppData\Local\Temp\ccs84DG0.s 			page 16


 210:.\main.c      ****             substring in str2. */
 211:.\main.c      ****             status = searchSubString(str, subStr);
 632              		.loc 1 211 0
 633 009e 281C     		mov	r0, r5
 634 00a0 211C     		mov	r1, r4
 635 00a2 FFF7FEFF 		bl	searchSubString
 636              	.LVL112:
 637 00a6 7860     		str	r0, [r7, #4]
 638              	.LVL113:
 212:.\main.c      ****             UART_1_PutString("The string comparions returned ");
 639              		.loc 1 212 0
 640 00a8 1048     		ldr	r0, .L58+12
 641              	.LVL114:
 642 00aa FFF7FEFF 		bl	UART_1_PutString
 643              	.LVL115:
 213:.\main.c      ****             if(status >= 0){
 644              		.loc 1 213 0
 645 00ae 7B68     		ldr	r3, [r7, #4]
 646 00b0 002B     		cmp	r3, #0
 647 00b2 03DB     		blt	.L55
 214:.\main.c      ****                 UART_1_PutChar(status);
 648              		.loc 1 214 0
 649 00b4 D8B2     		uxtb	r0, r3
 650 00b6 FFF7FEFF 		bl	UART_1_PutChar
 651              	.LVL116:
 652 00ba 02E0     		b	.L56
 653              	.L55:
 215:.\main.c      ****             }else{
 216:.\main.c      ****                 UART_1_PutString("-1");
 654              		.loc 1 216 0
 655 00bc 0D48     		ldr	r0, .L58+20
 656 00be FFF7FEFF 		bl	UART_1_PutString
 657              	.LVL117:
 658              	.L56:
 217:.\main.c      ****             }
 218:.\main.c      ****             UART_1_PutString("\n\r");
 659              		.loc 1 218 0
 660 00c2 0948     		ldr	r0, .L58+8
 661 00c4 FFF7FEFF 		bl	UART_1_PutString
 662              	.LVL118:
 219:.\main.c      ****             break;
 663              		.loc 1 219 0
 664 00c8 B2E7     		b	.L47
 665              	.LVL119:
 666              	.L57:
 220:.\main.c      ****             default:
 221:.\main.c      ****             UART_1_PutString("Erroneous entry ");
 667              		.loc 1 221 0
 668 00ca 0B48     		ldr	r0, .L58+24
 669 00cc FFF7FEFF 		bl	UART_1_PutString
 670              	.LVL120:
 222:.\main.c      ****             UART_1_PutChar(choice);
 671              		.loc 1 222 0
 672 00d0 F87B     		ldrb	r0, [r7, #15]
 673 00d2 FFF7FEFF 		bl	UART_1_PutChar
 674              	.LVL121:
 223:.\main.c      ****             UART_1_PutString("\n\r");
ARM GAS  C:\Users\Gary\AppData\Local\Temp\ccs84DG0.s 			page 17


 675              		.loc 1 223 0
 676 00d6 0448     		ldr	r0, .L58+8
 677 00d8 FFF7FEFF 		bl	UART_1_PutString
 678              	.LVL122:
 679 00dc A8E7     		b	.L47
 680              	.L59:
 681 00de C046     		.align	2
 682              	.L58:
 683 00e0 00000000 		.word	.LANCHOR0
 684 00e4 68000000 		.word	.LC15
 685 00e8 1C000000 		.word	.LC2
 686 00ec D4000000 		.word	.LC18
 687 00f0 F4000000 		.word	.LC20
 688 00f4 14010000 		.word	.LC22
 689 00f8 18010000 		.word	.LC24
 690              		.cfi_endproc
 691              	.LFE37:
 692              		.size	main, .-main
 693              		.global	MAX_BUFFER_SIZE
 694              		.data
 695              		.align	2
 696              		.set	.LANCHOR0,. + 0
 697              		.type	MAX_BUFFER_SIZE, %object
 698              		.size	MAX_BUFFER_SIZE, 4
 699              	MAX_BUFFER_SIZE:
 700 0000 19000000 		.word	25
 701              		.section	.rodata.str1.4,"aMS",%progbits,1
 702              		.align	2
 703              	.LC0:
 704 0000 456E7465 		.ascii	"Enter the first string: \000"
 704      72207468 
 704      65206669 
 704      72737420 
 704      73747269 
 705 0019 000000   		.space	3
 706              	.LC2:
 707 001c 0A0D00   		.ascii	"\012\015\000"
 708 001f 00       		.space	1
 709              	.LC4:
 710 0020 456E7465 		.ascii	"Enter the second string: \000"
 710      72207468 
 710      65207365 
 710      636F6E64 
 710      20737472 
 711 003a 0000     		.space	2
 712              	.LC9:
 713 003c 456E7465 		.ascii	"Enter the string: \000"
 713      72207468 
 713      65207374 
 713      72696E67 
 713      3A2000
 714 004f 00       		.space	1
 715              	.LC12:
 716 0050 456E7465 		.ascii	"Enter the sub string: \000"
 716      72207468 
 716      65207375 
 716      62207374 
ARM GAS  C:\Users\Gary\AppData\Local\Temp\ccs84DG0.s 			page 18


 716      72696E67 
 717 0067 00       		.space	1
 718              	.LC15:
 719 0068 46756E63 		.ascii	"Function to execute (1 for string compare, 2 of cha"
 719      74696F6E 
 719      20746F20 
 719      65786563 
 719      75746520 
 720 009b 72616374 		.ascii	"racter search, 3 for sub-string search, or -1 to ex"
 720      65722073 
 720      65617263 
 720      682C2033 
 720      20666F72 
 721 00ce 6974293A 		.ascii	"it): \000"
 721      2000
 722              	.LC18:
 723 00d4 54686520 		.ascii	"The string comparions returned \000"
 723      73747269 
 723      6E672063 
 723      6F6D7061 
 723      72696F6E 
 724              	.LC20:
 725 00f4 54686520 		.ascii	"The character is at position \000"
 725      63686172 
 725      61637465 
 725      72206973 
 725      20617420 
 726 0112 0000     		.space	2
 727              	.LC22:
 728 0114 2D3100   		.ascii	"-1\000"
 729 0117 00       		.space	1
 730              	.LC24:
 731 0118 4572726F 		.ascii	"Erroneous entry \000"
 731      6E656F75 
 731      7320656E 
 731      74727920 
 731      00
 732 0129 000000   		.text
 733              	.Letext0:
 734              		.file 2 "Generated_Source\\PSoC4/cytypes.h"
 735              		.file 3 "Generated_Source\\PSoC4/UART_1.h"