ARM GAS  C:\Users\Gary\AppData\Local\Temp\cc4bBDjo.s 			page 1


   1              		.cpu cortex-m0
   2              		.fpu softvfp
   3              		.eabi_attribute 20, 1
   4              		.eabi_attribute 21, 1
   5              		.eabi_attribute 23, 3
   6              		.eabi_attribute 24, 1
   7              		.eabi_attribute 25, 1
   8              		.eabi_attribute 26, 1
   9              		.eabi_attribute 30, 1
  10              		.eabi_attribute 34, 0
  11              		.eabi_attribute 18, 4
  12              		.code	16
  13              		.file	"main.c"
  14              		.text
  15              	.Ltext0:
  16              		.cfi_sections	.debug_frame
  17              		.section	.text.countBits,"ax",%progbits
  18              		.align	2
  19              		.global	countBits
  20              		.code	16
  21              		.thumb_func
  22              		.type	countBits, %function
  23              	countBits:
  24              	.LFB33:
  25              		.file 1 ".\\main.c"
   1:.\main.c      **** /* ========================================
   2:.\main.c      ****  *
   3:.\main.c      ****  * Copyright YOUR COMPANY, THE YEAR
   4:.\main.c      ****  * All Rights Reserved
   5:.\main.c      ****  * UNPUBLISHED, LICENSED SOFTWARE.
   6:.\main.c      ****  *
   7:.\main.c      ****  * CONFIDENTIAL AND PROPRIETARY INFORMATION
   8:.\main.c      ****  * WHICH IS THE PROPERTY OF your company.
   9:.\main.c      ****  *
  10:.\main.c      ****  * ========================================
  11:.\main.c      **** */
  12:.\main.c      **** #include <project.h>
  13:.\main.c      **** #include <stdio.h>
  14:.\main.c      **** 
  15:.\main.c      **** int countBits(int v){
  26              		.loc 1 15 0
  27              		.cfi_startproc
  28              	.LVL0:
  29 0000 031C     		mov	r3, r0
  30              	.LVL1:
  16:.\main.c      ****     int count = 0;
  31              		.loc 1 16 0
  32 0002 0020     		mov	r0, #0
  33              	.LVL2:
  17:.\main.c      ****     while(v)
  34              		.loc 1 17 0
  35 0004 03E0     		b	.L2
  36              	.LVL3:
  37              	.L3:
  18:.\main.c      ****     {
  19:.\main.c      ****         count += v & 1;
  38              		.loc 1 19 0
ARM GAS  C:\Users\Gary\AppData\Local\Temp\cc4bBDjo.s 			page 2


  39 0006 0122     		mov	r2, #1
  40 0008 1A40     		and	r2, r3
  41 000a 8018     		add	r0, r0, r2
  42              	.LVL4:
  20:.\main.c      ****         v >>= 1;
  43              		.loc 1 20 0
  44 000c 5B10     		asr	r3, r3, #1
  45              	.LVL5:
  46              	.L2:
  17:.\main.c      ****     while(v)
  47              		.loc 1 17 0
  48 000e 002B     		cmp	r3, #0
  49 0010 F9D1     		bne	.L3
  21:.\main.c      ****     }
  22:.\main.c      ****     return count;
  23:.\main.c      **** }
  50              		.loc 1 23 0
  51              		@ sp needed
  52 0012 7047     		bx	lr
  53              		.cfi_endproc
  54              	.LFE33:
  55              		.size	countBits, .-countBits
  56              		.section	.text.rearrange,"ax",%progbits
  57              		.align	2
  58              		.global	rearrange
  59              		.code	16
  60              		.thumb_func
  61              		.type	rearrange, %function
  62              	rearrange:
  63              	.LFB34:
  24:.\main.c      **** 
  25:.\main.c      **** uint8 rearrange(uint8 v)
  26:.\main.c      **** {
  64              		.loc 1 26 0
  65              		.cfi_startproc
  66              	.LVL6:
  67 0000 70B5     		push	{r4, r5, r6, lr}
  68              		.cfi_def_cfa_offset 16
  69              		.cfi_offset 4, -16
  70              		.cfi_offset 5, -12
  71              		.cfi_offset 6, -8
  72              		.cfi_offset 14, -4
  73 0002 8CB0     		sub	sp, sp, #48
  74              		.cfi_def_cfa_offset 64
  27:.\main.c      ****     int count = countBits(v); /*Number of bits*/
  75              		.loc 1 27 0
  76 0004 FFF7FEFF 		bl	countBits
  77              	.LVL7:
  78 0008 061C     		mov	r6, r0
  79              	.LVL8:
  28:.\main.c      ****     int numzero = 8-count; 
  80              		.loc 1 28 0
  81 000a 0825     		mov	r5, #8
  82 000c 2D1A     		sub	r5, r5, r0
  83              	.LVL9:
  29:.\main.c      ****     int counter1 = 0;
  30:.\main.c      ****     int counter = 0;
ARM GAS  C:\Users\Gary\AppData\Local\Temp\cc4bBDjo.s 			page 3


  31:.\main.c      ****     int zero = 0;
  32:.\main.c      ****     int ones =1;
  33:.\main.c      ****     char str1[15];
  34:.\main.c      ****     char str2[15];
  35:.\main.c      ****     char str3[8];
  36:.\main.c      ****     int result;
  37:.\main.c      ****     
  38:.\main.c      ****     //UART_1_PutString("Binary Representation: \n\r");
  39:.\main.c      ****    
  40:.\main.c      ****     // add code to store rearranged binary value
  41:.\main.c      ****     
  42:.\main.c      ****     for(counter1 = 0; counter1<count;counter1 = counter1+1)
  84              		.loc 1 42 0
  85 000e 0024     		mov	r4, #0
  86 0010 0CE0     		b	.L5
  87              	.LVL10:
  88              	.L6:
  43:.\main.c      ****     {
  44:.\main.c      ****         //char str1[15];
  45:.\main.c      ****         sprintf(str1,"%d",ones);
  89              		.loc 1 45 0 discriminator 3
  90 0012 08A8     		add	r0, sp, #32
  91 0014 1549     		ldr	r1, .L9
  92 0016 0122     		mov	r2, #1
  93 0018 FFF7FEFF 		bl	sprintf
  94              	.LVL11:
  46:.\main.c      ****         UART_1_PutString(str1);
  95              		.loc 1 46 0 discriminator 3
  96 001c 08A8     		add	r0, sp, #32
  97 001e FFF7FEFF 		bl	UART_1_PutString
  98              	.LVL12:
  47:.\main.c      ****         strcat(str3, str1);
  99              		.loc 1 47 0 discriminator 3
 100 0022 02A8     		add	r0, sp, #8
 101 0024 08A9     		add	r1, sp, #32
 102 0026 FFF7FEFF 		bl	strcat
 103              	.LVL13:
  42:.\main.c      ****     {
 104              		.loc 1 42 0 discriminator 3
 105 002a 0134     		add	r4, r4, #1
 106              	.LVL14:
 107              	.L5:
  42:.\main.c      ****     {
 108              		.loc 1 42 0 is_stmt 0 discriminator 1
 109 002c B442     		cmp	r4, r6
 110 002e F0DB     		blt	.L6
 111 0030 0024     		mov	r4, #0
 112              	.LVL15:
 113 0032 0CE0     		b	.L7
 114              	.LVL16:
 115              	.L8:
  48:.\main.c      ****     }
  49:.\main.c      ****     
  50:.\main.c      ****     for(counter=0; counter<numzero; counter = counter + 1)
  51:.\main.c      ****     {   
  52:.\main.c      ****         //char str2[15];
  53:.\main.c      ****         sprintf(str2,"%d", zero);
ARM GAS  C:\Users\Gary\AppData\Local\Temp\cc4bBDjo.s 			page 4


 116              		.loc 1 53 0 is_stmt 1 discriminator 3
 117 0034 04A8     		add	r0, sp, #16
 118 0036 0D49     		ldr	r1, .L9
 119 0038 0022     		mov	r2, #0
 120 003a FFF7FEFF 		bl	sprintf
 121              	.LVL17:
  54:.\main.c      ****         UART_1_PutString(str2);  
 122              		.loc 1 54 0 discriminator 3
 123 003e 04A8     		add	r0, sp, #16
 124 0040 FFF7FEFF 		bl	UART_1_PutString
 125              	.LVL18:
  55:.\main.c      ****         strcat(str3, str2);
 126              		.loc 1 55 0 discriminator 3
 127 0044 02A8     		add	r0, sp, #8
 128 0046 04A9     		add	r1, sp, #16
 129 0048 FFF7FEFF 		bl	strcat
 130              	.LVL19:
  50:.\main.c      ****     {   
 131              		.loc 1 50 0 discriminator 3
 132 004c 0134     		add	r4, r4, #1
 133              	.LVL20:
 134              	.L7:
  50:.\main.c      ****     {   
 135              		.loc 1 50 0 is_stmt 0 discriminator 1
 136 004e AC42     		cmp	r4, r5
 137 0050 F0DB     		blt	.L8
  56:.\main.c      ****     }   
  57:.\main.c      ****     
  58:.\main.c      ****     UART_1_PutString("\n\r");
 138              		.loc 1 58 0 is_stmt 1
 139 0052 0748     		ldr	r0, .L9+4
 140 0054 FFF7FEFF 		bl	UART_1_PutString
 141              	.LVL21:
  59:.\main.c      ****     
  60:.\main.c      ****     sscanf(str3, "%d", &result);
 142              		.loc 1 60 0
 143 0058 02A8     		add	r0, sp, #8
 144 005a 0449     		ldr	r1, .L9
 145 005c 01AA     		add	r2, sp, #4
 146 005e FFF7FEFF 		bl	sscanf
 147              	.LVL22:
  61:.\main.c      ****     
  62:.\main.c      ****     return result;
 148              		.loc 1 62 0
 149 0062 019B     		ldr	r3, [sp, #4]
 150 0064 D8B2     		uxtb	r0, r3
  63:.\main.c      **** }
 151              		.loc 1 63 0
 152 0066 0CB0     		add	sp, sp, #48
 153              		@ sp needed
 154              	.LVL23:
 155              	.LVL24:
 156              	.LVL25:
 157 0068 70BD     		pop	{r4, r5, r6, pc}
 158              	.L10:
 159 006a C046     		.align	2
 160              	.L9:
ARM GAS  C:\Users\Gary\AppData\Local\Temp\cc4bBDjo.s 			page 5


 161 006c 00000000 		.word	.LC0
 162 0070 04000000 		.word	.LC2
 163              		.cfi_endproc
 164              	.LFE34:
 165              		.size	rearrange, .-rearrange
 166              		.section	.text.WriteHex,"ax",%progbits
 167              		.align	2
 168              		.global	WriteHex
 169              		.code	16
 170              		.thumb_func
 171              		.type	WriteHex, %function
 172              	WriteHex:
 173              	.LFB35:
  64:.\main.c      **** 
  65:.\main.c      **** void WriteHex(int a)
  66:.\main.c      **** {
 174              		.loc 1 66 0
 175              		.cfi_startproc
 176              	.LVL26:
 177 0000 00B5     		push	{lr}
 178              		.cfi_def_cfa_offset 4
 179              		.cfi_offset 14, -4
 180 0002 85B0     		sub	sp, sp, #20
 181              		.cfi_def_cfa_offset 24
 182 0004 021C     		mov	r2, r0
  67:.\main.c      ****     char str[15];
  68:.\main.c      ****     sprintf(str,"%x\n\r",a);
 183              		.loc 1 68 0
 184 0006 6846     		mov	r0, sp
 185              	.LVL27:
 186 0008 0349     		ldr	r1, .L12
 187 000a FFF7FEFF 		bl	sprintf
 188              	.LVL28:
  69:.\main.c      ****     UART_1_PutString(str);
 189              		.loc 1 69 0
 190 000e 6846     		mov	r0, sp
 191 0010 FFF7FEFF 		bl	UART_1_PutString
 192              	.LVL29:
  70:.\main.c      **** }
 193              		.loc 1 70 0
 194 0014 05B0     		add	sp, sp, #20
 195              		@ sp needed
 196 0016 00BD     		pop	{pc}
 197              	.L13:
 198              		.align	2
 199              	.L12:
 200 0018 08000000 		.word	.LC4
 201              		.cfi_endproc
 202              	.LFE35:
 203              		.size	WriteHex, .-WriteHex
 204              		.section	.text.main,"ax",%progbits
 205              		.align	2
 206              		.global	main
 207              		.code	16
 208              		.thumb_func
 209              		.type	main, %function
 210              	main:
ARM GAS  C:\Users\Gary\AppData\Local\Temp\cc4bBDjo.s 			page 6


 211              	.LFB36:
  71:.\main.c      **** 
  72:.\main.c      **** int main()
  73:.\main.c      **** {
 212              		.loc 1 73 0
 213              		.cfi_startproc
 214 0000 08B5     		push	{r3, lr}
 215              		.cfi_def_cfa_offset 8
 216              		.cfi_offset 3, -8
 217              		.cfi_offset 14, -4
  74:.\main.c      ****     CyGlobalIntEnable; /* Enable global interrupts. */
 218              		.loc 1 74 0
 219              	@ 74 ".\main.c" 1
 220 0002 62B6     		CPSIE   i
 221              	@ 0 "" 2
  75:.\main.c      ****     
  76:.\main.c      ****     UART_1_Start();
 222              		.loc 1 76 0
 223              		.code	16
 224 0004 FFF7FEFF 		bl	UART_1_Start
 225              	.LVL30:
  77:.\main.c      ****     UART_1_PutString("\n \r");
 226              		.loc 1 77 0
 227 0008 0448     		ldr	r0, .L16
 228 000a FFF7FEFF 		bl	UART_1_PutString
 229              	.LVL31:
  78:.\main.c      ****     
  79:.\main.c      ****     uint8 v1 = 18;
  80:.\main.c      ****     uint8 v2 = rearrange(v1);
 230              		.loc 1 80 0
 231 000e 1220     		mov	r0, #18
 232 0010 FFF7FEFF 		bl	rearrange
 233              	.LVL32:
  81:.\main.c      ****     WriteHex(v2);
 234              		.loc 1 81 0
 235 0014 FFF7FEFF 		bl	WriteHex
 236              	.LVL33:
 237              	.L15:
  82:.\main.c      ****     for(;;)
  83:.\main.c      ****     {
  84:.\main.c      ****         /* Place your application code here. */
  85:.\main.c      ****     }
 238              		.loc 1 85 0 discriminator 1
 239 0018 FEE7     		b	.L15
 240              	.L17:
 241 001a C046     		.align	2
 242              	.L16:
 243 001c 10000000 		.word	.LC6
 244              		.cfi_endproc
 245              	.LFE36:
 246              		.size	main, .-main
 247              		.section	.rodata.str1.4,"aMS",%progbits,1
 248              		.align	2
 249              	.LC0:
 250 0000 256400   		.ascii	"%d\000"
 251 0003 00       		.space	1
 252              	.LC2:
ARM GAS  C:\Users\Gary\AppData\Local\Temp\cc4bBDjo.s 			page 7


 253 0004 0A0D00   		.ascii	"\012\015\000"
 254 0007 00       		.space	1
 255              	.LC4:
 256 0008 25780A0D 		.ascii	"%x\012\015\000"
 256      00
 257 000d 000000   		.space	3
 258              	.LC6:
 259 0010 0A200D00 		.ascii	"\012 \015\000"
 260              		.text
 261              	.Letext0:
 262              		.file 2 "Generated_Source\\PSoC4/cytypes.h"
 263              		.file 3 "c:\\program files (x86)\\cypress\\psoc creator\\3.3\\psoc creator\\import\\gnu\\arm\\4.9.
 264              		.file 4 "c:\\program files (x86)\\cypress\\psoc creator\\3.3\\psoc creator\\import\\gnu\\arm\\4.9.
 265              		.file 5 "Generated_Source\\PSoC4/UART_1.h"