ARM GAS  C:\Users\Gary\AppData\Local\Temp\ccblFkYf.s 			page 1


   1              		.cpu cortex-m0
   2              		.fpu softvfp
   3              		.eabi_attribute 20, 1
   4              		.eabi_attribute 21, 1
   5              		.eabi_attribute 23, 3
   6              		.eabi_attribute 24, 1
   7              		.eabi_attribute 25, 1
   8              		.eabi_attribute 26, 1
   9              		.eabi_attribute 30, 1
  10              		.eabi_attribute 34, 0
  11              		.eabi_attribute 18, 4
  12              		.code	16
  13              		.file	"main.c"
  14              		.text
  15              	.Ltext0:
  16              		.cfi_sections	.debug_frame
  17              		.section	.text.readString,"ax",%progbits
  18              		.align	2
  19              		.global	readString
  20              		.code	16
  21              		.thumb_func
  22              		.type	readString, %function
  23              	readString:
  24              	.LFB33:
  25              		.file 1 ".\\main.c"
   1:.\main.c      **** /* ========================================
   2:.\main.c      ****  *
   3:.\main.c      ****  * Copyright YOUR COMPANY, THE YEAR
   4:.\main.c      ****  * All Rights Reserved
   5:.\main.c      ****  * UNPUBLISHED, LICENSED SOFTWARE.
   6:.\main.c      ****  *
   7:.\main.c      ****  * CONFIDENTIAL AND PROPRIETARY INFORMATION
   8:.\main.c      ****  * WHICH IS THE PROPERTY OF your company.
   9:.\main.c      ****  *
  10:.\main.c      ****  * ========================================
  11:.\main.c      **** */
  12:.\main.c      **** #include <project.h>
  13:.\main.c      **** #include <stdlib.h>
  14:.\main.c      **** #include <stdio.h>
  15:.\main.c      **** 
  16:.\main.c      **** int MAX_BUFFER_SIZE = 25;
  17:.\main.c      **** 
  18:.\main.c      **** /* Read a string from the terminal via the UART. */
  19:.\main.c      **** void readString(char *buffer)
  20:.\main.c      **** {
  26              		.loc 1 20 0
  27              		.cfi_startproc
  28              	.LVL0:
  29 0000 70B5     		push	{r4, r5, r6, lr}
  30              		.cfi_def_cfa_offset 16
  31              		.cfi_offset 4, -16
  32              		.cfi_offset 5, -12
  33              		.cfi_offset 6, -8
  34              		.cfi_offset 14, -4
  35 0002 061C     		mov	r6, r0
  36              	.LVL1:
  37              	.L2:
ARM GAS  C:\Users\Gary\AppData\Local\Temp\ccblFkYf.s 			page 2


  21:.\main.c      ****     uint32 rxData;
  22:.\main.c      ****     char *ptr = buffer;
  23:.\main.c      ****     for(;;){
  24:.\main.c      ****         rxData = UART_1_GetChar();
  38              		.loc 1 24 0
  39 0004 FFF7FEFF 		bl	UART_1_GetChar
  40              	.LVL2:
  41 0008 051E     		sub	r5, r0, #0
  42              	.LVL3:
  25:.\main.c      ****         if(rxData){
  43              		.loc 1 25 0
  44 000a FBD0     		beq	.L2
  26:.\main.c      ****             UART_1_PutChar(rxData); /* Echo character. */
  45              		.loc 1 26 0
  46 000c FFF7FEFF 		bl	UART_1_PutChar
  47              	.LVL4:
  27:.\main.c      ****             /* On a carriage return, null terminate the string
  28:.\main.c      ****             and break out of the loop. */
  29:.\main.c      ****             if(rxData == '\r'){
  48              		.loc 1 29 0
  49 0010 0D2D     		cmp	r5, #13
  50 0012 02D1     		bne	.L3
  30:.\main.c      ****                 *ptr = '\0';
  51              		.loc 1 30 0
  52 0014 0023     		mov	r3, #0
  53 0016 3370     		strb	r3, [r6]
  54 0018 02E0     		b	.L5
  55              	.L3:
  31:.\main.c      ****                 break;
  32:.\main.c      ****             }
  33:.\main.c      ****             *ptr = rxData;
  56              		.loc 1 33 0
  57 001a 3570     		strb	r5, [r6]
  34:.\main.c      ****             ptr++;
  58              		.loc 1 34 0
  59 001c 0136     		add	r6, r6, #1
  60              	.LVL5:
  61 001e F1E7     		b	.L2
  62              	.L5:
  35:.\main.c      ****         }
  36:.\main.c      ****     }
  37:.\main.c      **** }
  63              		.loc 1 37 0
  64              		@ sp needed
  65              	.LVL6:
  66              	.LVL7:
  67 0020 70BD     		pop	{r4, r5, r6, pc}
  68              		.cfi_endproc
  69              	.LFE33:
  70              		.size	readString, .-readString
  71 0022 C046     		.section	.text.wordCount,"ax",%progbits
  72              		.align	2
  73              		.global	wordCount
  74              		.code	16
  75              		.thumb_func
  76              		.type	wordCount, %function
  77              	wordCount:
ARM GAS  C:\Users\Gary\AppData\Local\Temp\ccblFkYf.s 			page 3


  78              	.LFB34:
  38:.\main.c      **** 
  39:.\main.c      **** void wordCount(char *str){
  79              		.loc 1 39 0
  80              		.cfi_startproc
  81              	.LVL8:
  82 0000 F0B5     		push	{r4, r5, r6, r7, lr}
  83              		.cfi_def_cfa_offset 20
  84              		.cfi_offset 4, -20
  85              		.cfi_offset 5, -16
  86              		.cfi_offset 6, -12
  87              		.cfi_offset 7, -8
  88              		.cfi_offset 14, -4
  89 0002 4746     		mov	r7, r8
  90 0004 80B4     		push	{r7}
  91              		.cfi_def_cfa_offset 24
  92              		.cfi_offset 8, -24
  93 0006 041C     		mov	r4, r0
  40:.\main.c      ****     UART_1_PutString("Enter the first string: ");
  94              		.loc 1 40 0
  95 0008 3C48     		ldr	r0, .L25
  96              	.LVL9:
  97 000a FFF7FEFF 		bl	UART_1_PutString
  98              	.LVL10:
  41:.\main.c      ****     readString(str);
  99              		.loc 1 41 0
 100 000e 201C     		mov	r0, r4
 101 0010 FFF7FEFF 		bl	readString
 102              	.LVL11:
  42:.\main.c      ****     UART_1_PutString("\n\r");
 103              		.loc 1 42 0
 104 0014 3A48     		ldr	r0, .L25+4
 105 0016 FFF7FEFF 		bl	UART_1_PutString
 106              	.LVL12:
  43:.\main.c      ****     
  44:.\main.c      ****     int i = 0;
 107              		.loc 1 44 0
 108 001a 0023     		mov	r3, #0
  45:.\main.c      ****     int length;
  46:.\main.c      ****     int longest = 0;
  47:.\main.c      ****     int tempLong = 0;
  48:.\main.c      ****     int tempVowel = 0;
  49:.\main.c      ****     int wc = 0;
  50:.\main.c      ****     int vowelCount = 0;
  51:.\main.c      ****     char lc;
  52:.\main.c      ****     
  53:.\main.c      ****     while(str[i]!='\0'){
 109              		.loc 1 53 0
 110 001c 00E0     		b	.L7
 111              	.LVL13:
 112              	.L8:
  54:.\main.c      ****         i++;
 113              		.loc 1 54 0
 114 001e 0133     		add	r3, r3, #1
 115              	.LVL14:
 116              	.L7:
  53:.\main.c      ****         i++;
ARM GAS  C:\Users\Gary\AppData\Local\Temp\ccblFkYf.s 			page 4


 117              		.loc 1 53 0
 118 0020 E25C     		ldrb	r2, [r4, r3]
 119 0022 002A     		cmp	r2, #0
 120 0024 FBD1     		bne	.L8
 121              	.LVL15:
  49:.\main.c      ****     int vowelCount = 0;
 122              		.loc 1 49 0
 123 0026 9446     		mov	ip, r2
  47:.\main.c      ****     int tempVowel = 0;
 124              		.loc 1 47 0
 125 0028 0026     		mov	r6, #0
  46:.\main.c      ****     int tempLong = 0;
 126              		.loc 1 46 0
 127 002a 0020     		mov	r0, #0
  55:.\main.c      ****     }
  56:.\main.c      ****     length = i;
  57:.\main.c      ****     
  58:.\main.c      ****     for(i = 0; i < length; i++){
 128              		.loc 1 58 0
 129 002c 1CE0     		b	.L9
 130              	.LVL16:
 131              	.L15:
  59:.\main.c      ****         if(str[i] == ' ' || i == length - 1){
 132              		.loc 1 59 0
 133 002e A15C     		ldrb	r1, [r4, r2]
 134 0030 2029     		cmp	r1, #32
 135 0032 02D0     		beq	.L10
 136              		.loc 1 59 0 is_stmt 0 discriminator 1
 137 0034 5F1E     		sub	r7, r3, #1
 138 0036 9742     		cmp	r7, r2
 139 0038 10D1     		bne	.L11
 140              	.L10:
  60:.\main.c      ****             if( i == length - 1 && str[i] != ' '){
 141              		.loc 1 60 0 is_stmt 1
 142 003a 5F1E     		sub	r7, r3, #1
 143 003c 9742     		cmp	r7, r2
 144 003e 02D1     		bne	.L12
 145              		.loc 1 60 0 is_stmt 0 discriminator 1
 146 0040 2029     		cmp	r1, #32
 147 0042 00D0     		beq	.L12
  61:.\main.c      ****                 tempLong++;
 148              		.loc 1 61 0 is_stmt 1
 149 0044 0136     		add	r6, r6, #1
 150              	.LVL17:
 151              	.L12:
  62:.\main.c      ****             }
  63:.\main.c      ****             if(tempLong > 0 && lc != ' '){
 152              		.loc 1 63 0
 153 0046 002E     		cmp	r6, #0
 154 0048 04DD     		ble	.L13
 155              		.loc 1 63 0 is_stmt 0 discriminator 1
 156 004a 202D     		cmp	r5, #32
 157 004c 02D0     		beq	.L13
  64:.\main.c      ****                 wc++;
 158              		.loc 1 64 0 is_stmt 1
 159 004e 0125     		mov	r5, #1
 160              	.LVL18:
ARM GAS  C:\Users\Gary\AppData\Local\Temp\ccblFkYf.s 			page 5


 161 0050 A846     		mov	r8, r5
 162 0052 C444     		add	ip, ip, r8
 163              	.LVL19:
 164              	.L13:
  65:.\main.c      ****             }
  66:.\main.c      ****             if(longest < tempLong){
 165              		.loc 1 66 0
 166 0054 B042     		cmp	r0, r6
 167 0056 03DB     		blt	.L22
  67:.\main.c      ****                 longest = tempLong;
  68:.\main.c      ****             }
  69:.\main.c      ****             tempLong = 0;   
 168              		.loc 1 69 0
 169 0058 0026     		mov	r6, #0
 170              	.LVL20:
 171 005a 03E0     		b	.L14
 172              	.LVL21:
 173              	.L11:
  70:.\main.c      ****         }else{
  71:.\main.c      ****             tempLong++;
 174              		.loc 1 71 0
 175 005c 0136     		add	r6, r6, #1
 176              	.LVL22:
 177 005e 01E0     		b	.L14
 178              	.LVL23:
 179              	.L22:
  67:.\main.c      ****                 longest = tempLong;
 180              		.loc 1 67 0
 181 0060 301C     		mov	r0, r6
 182              	.LVL24:
  69:.\main.c      ****         }else{
 183              		.loc 1 69 0
 184 0062 0026     		mov	r6, #0
 185              	.LVL25:
 186              	.L14:
  58:.\main.c      ****         if(str[i] == ' ' || i == length - 1){
 187              		.loc 1 58 0 discriminator 2
 188 0064 0132     		add	r2, r2, #1
 189              	.LVL26:
  72:.\main.c      ****         }
  73:.\main.c      ****         lc = str[i];
 190              		.loc 1 73 0 discriminator 2
 191 0066 0D1C     		mov	r5, r1
 192              	.LVL27:
 193              	.L9:
  58:.\main.c      ****         if(str[i] == ' ' || i == length - 1){
 194              		.loc 1 58 0 discriminator 1
 195 0068 9A42     		cmp	r2, r3
 196 006a E0DB     		blt	.L15
 197 006c 0026     		mov	r6, #0
 198              	.LVL28:
 199 006e 0025     		mov	r5, #0
 200              	.LVL29:
 201 0070 0022     		mov	r2, #0
 202              	.LVL30:
 203 0072 1CE0     		b	.L16
 204              	.LVL31:
ARM GAS  C:\Users\Gary\AppData\Local\Temp\ccblFkYf.s 			page 6


 205              	.L21:
  74:.\main.c      ****     }
  75:.\main.c      ****     
  76:.\main.c      ****     for(i = 0; i < length; i++){
  77:.\main.c      ****         if(str[i] != ' '){
 206              		.loc 1 77 0
 207 0074 A15C     		ldrb	r1, [r4, r2]
 208 0076 2029     		cmp	r1, #32
 209 0078 10D0     		beq	.L17
  78:.\main.c      ****             if(str[i] == 'a' || str[i] == 'e' || str[i] == 'i' || str[i] == 'o' || str[i] == 'u'){
 210              		.loc 1 78 0
 211 007a 6129     		cmp	r1, #97
 212 007c 07D0     		beq	.L18
 213              		.loc 1 78 0 is_stmt 0 discriminator 1
 214 007e 6529     		cmp	r1, #101
 215 0080 05D0     		beq	.L18
 216              		.loc 1 78 0 discriminator 2
 217 0082 6929     		cmp	r1, #105
 218 0084 03D0     		beq	.L18
 219              		.loc 1 78 0 discriminator 3
 220 0086 6F29     		cmp	r1, #111
 221 0088 01D0     		beq	.L18
 222              		.loc 1 78 0 discriminator 4
 223 008a 7529     		cmp	r1, #117
 224 008c 00D1     		bne	.L19
 225              	.L18:
  79:.\main.c      ****                 tempVowel++;
 226              		.loc 1 79 0 is_stmt 1
 227 008e 0135     		add	r5, r5, #1
 228              	.LVL32:
 229              	.L19:
  80:.\main.c      ****             }
  81:.\main.c      ****             if(i == length - 1){
 230              		.loc 1 81 0
 231 0090 591E     		sub	r1, r3, #1
 232 0092 9142     		cmp	r1, r2
 233 0094 0AD1     		bne	.L20
  82:.\main.c      ****                 if(vowelCount < tempVowel){
 234              		.loc 1 82 0
 235 0096 AE42     		cmp	r6, r5
 236 0098 04DB     		blt	.L23
 237 009a 07E0     		b	.L20
 238              	.L17:
  83:.\main.c      ****                 vowelCount = tempVowel;
  84:.\main.c      ****                 }
  85:.\main.c      ****             }
  86:.\main.c      ****         }else{
  87:.\main.c      ****             if(vowelCount < tempVowel){
 239              		.loc 1 87 0
 240 009c AE42     		cmp	r6, r5
 241 009e 03DB     		blt	.L24
  88:.\main.c      ****                 vowelCount = tempVowel;
  89:.\main.c      ****             }
  90:.\main.c      ****             tempVowel = 0;
 242              		.loc 1 90 0
 243 00a0 0025     		mov	r5, #0
 244              	.LVL33:
ARM GAS  C:\Users\Gary\AppData\Local\Temp\ccblFkYf.s 			page 7


 245 00a2 03E0     		b	.L20
 246              	.LVL34:
 247              	.L23:
  83:.\main.c      ****                 vowelCount = tempVowel;
 248              		.loc 1 83 0
 249 00a4 2E1C     		mov	r6, r5
 250              	.LVL35:
 251 00a6 01E0     		b	.L20
 252              	.LVL36:
 253              	.L24:
  88:.\main.c      ****                 vowelCount = tempVowel;
 254              		.loc 1 88 0
 255 00a8 2E1C     		mov	r6, r5
 256              	.LVL37:
 257              		.loc 1 90 0
 258 00aa 0025     		mov	r5, #0
 259              	.LVL38:
 260              	.L20:
  76:.\main.c      ****         if(str[i] != ' '){
 261              		.loc 1 76 0 discriminator 2
 262 00ac 0132     		add	r2, r2, #1
 263              	.LVL39:
 264              	.L16:
  76:.\main.c      ****         if(str[i] != ' '){
 265              		.loc 1 76 0 is_stmt 0 discriminator 1
 266 00ae 9A42     		cmp	r2, r3
 267 00b0 E0DB     		blt	.L21
  91:.\main.c      ****         }
  92:.\main.c      ****     }
  93:.\main.c      ****     
  94:.\main.c      ****     wc = wc + 'a' - 1 - '0';
 268              		.loc 1 94 0 is_stmt 1
 269 00b2 6546     		mov	r5, ip
 270              	.LVL40:
 271 00b4 3035     		add	r5, r5, #48
 272              	.LVL41:
  95:.\main.c      ****     longest = longest + 'a' - 1 - '0';
 273              		.loc 1 95 0
 274 00b6 3030     		add	r0, r0, #48
 275              	.LVL42:
 276 00b8 041C     		mov	r4, r0
 277              	.LVL43:
  96:.\main.c      ****     vowelCount = vowelCount + 'a' - 1 - '0';
 278              		.loc 1 96 0
 279 00ba 3036     		add	r6, r6, #48
 280              	.LVL44:
  97:.\main.c      ****     
  98:.\main.c      ****     UART_1_PutString("The word count is ");
 281              		.loc 1 98 0
 282 00bc 1148     		ldr	r0, .L25+8
 283              	.LVL45:
 284 00be FFF7FEFF 		bl	UART_1_PutString
 285              	.LVL46:
  99:.\main.c      ****     UART_1_PutChar(wc);
 286              		.loc 1 99 0
 287 00c2 E8B2     		uxtb	r0, r5
 288 00c4 FFF7FEFF 		bl	UART_1_PutChar
ARM GAS  C:\Users\Gary\AppData\Local\Temp\ccblFkYf.s 			page 8


 289              	.LVL47:
 100:.\main.c      ****     UART_1_PutString("\n\r");
 290              		.loc 1 100 0
 291 00c8 0D4D     		ldr	r5, .L25+4
 292              	.LVL48:
 293 00ca 281C     		mov	r0, r5
 294 00cc FFF7FEFF 		bl	UART_1_PutString
 295              	.LVL49:
 101:.\main.c      ****     UART_1_PutString("The longest word is ");
 296              		.loc 1 101 0
 297 00d0 0D48     		ldr	r0, .L25+12
 298 00d2 FFF7FEFF 		bl	UART_1_PutString
 299              	.LVL50:
 102:.\main.c      ****     UART_1_PutChar(longest);
 300              		.loc 1 102 0
 301 00d6 E0B2     		uxtb	r0, r4
 302 00d8 FFF7FEFF 		bl	UART_1_PutChar
 303              	.LVL51:
 103:.\main.c      ****     UART_1_PutString("\n\r");
 304              		.loc 1 103 0
 305 00dc 281C     		mov	r0, r5
 306 00de FFF7FEFF 		bl	UART_1_PutString
 307              	.LVL52:
 104:.\main.c      ****     UART_1_PutString("The word with the most vowels has ");
 308              		.loc 1 104 0
 309 00e2 0A48     		ldr	r0, .L25+16
 310 00e4 FFF7FEFF 		bl	UART_1_PutString
 311              	.LVL53:
 105:.\main.c      ****     UART_1_PutChar(vowelCount);
 312              		.loc 1 105 0
 313 00e8 F0B2     		uxtb	r0, r6
 314 00ea FFF7FEFF 		bl	UART_1_PutChar
 315              	.LVL54:
 106:.\main.c      ****     UART_1_PutString("\n\r");
 316              		.loc 1 106 0
 317 00ee 281C     		mov	r0, r5
 318 00f0 FFF7FEFF 		bl	UART_1_PutString
 319              	.LVL55:
 107:.\main.c      ****     
 108:.\main.c      **** }
 320              		.loc 1 108 0
 321              		@ sp needed
 322              	.LVL56:
 323              	.LVL57:
 324 00f4 04BC     		pop	{r2}
 325 00f6 9046     		mov	r8, r2
 326 00f8 F0BD     		pop	{r4, r5, r6, r7, pc}
 327              	.L26:
 328 00fa C046     		.align	2
 329              	.L25:
 330 00fc 00000000 		.word	.LC0
 331 0100 1C000000 		.word	.LC2
 332 0104 20000000 		.word	.LC4
 333 0108 34000000 		.word	.LC6
 334 010c 4C000000 		.word	.LC8
 335              		.cfi_endproc
 336              	.LFE34:
ARM GAS  C:\Users\Gary\AppData\Local\Temp\ccblFkYf.s 			page 9


 337              		.size	wordCount, .-wordCount
 338              		.section	.text.main,"ax",%progbits
 339              		.align	2
 340              		.global	main
 341              		.code	16
 342              		.thumb_func
 343              		.type	main, %function
 344              	main:
 345              	.LFB35:
 109:.\main.c      **** 
 110:.\main.c      **** int main()
 111:.\main.c      **** {
 346              		.loc 1 111 0
 347              		.cfi_startproc
 348 0000 98B5     		push	{r3, r4, r7, lr}
 349              		.cfi_def_cfa_offset 16
 350              		.cfi_offset 3, -16
 351              		.cfi_offset 4, -12
 352              		.cfi_offset 7, -8
 353              		.cfi_offset 14, -4
 354 0002 00AF     		add	r7, sp, #0
 355              		.cfi_def_cfa_register 7
 112:.\main.c      ****     CyGlobalIntEnable; /* Enable global interrupts. */
 356              		.loc 1 112 0
 357              	@ 112 ".\main.c" 1
 358 0004 62B6     		CPSIE   i
 359              	@ 0 "" 2
 113:.\main.c      ****     UART_1_Start(); /* Start the UART component. */
 360              		.loc 1 113 0
 361              		.code	16
 362 0006 FFF7FEFF 		bl	UART_1_Start
 363              	.LVL58:
 114:.\main.c      ****     char str[MAX_BUFFER_SIZE];
 364              		.loc 1 114 0
 365 000a 064B     		ldr	r3, .L29
 366 000c 1B68     		ldr	r3, [r3]
 367              	.LVL59:
 368 000e 0733     		add	r3, r3, #7
 369              	.LVL60:
 370 0010 DB08     		lsr	r3, r3, #3
 371 0012 DB00     		lsl	r3, r3, #3
 372 0014 6A46     		mov	r2, sp
 373 0016 D31A     		sub	r3, r2, r3
 374 0018 9D46     		mov	sp, r3
 375 001a 6C46     		mov	r4, sp
 376              	.LVL61:
 377              	.L28:
 115:.\main.c      ****     int status;
 116:.\main.c      ****     for(;;)
 117:.\main.c      ****     {
 118:.\main.c      ****         wordCount(str);
 378              		.loc 1 118 0 discriminator 1
 379 001c 201C     		mov	r0, r4
 380 001e FFF7FEFF 		bl	wordCount
 381              	.LVL62:
 119:.\main.c      ****     }
 382              		.loc 1 119 0 discriminator 1
ARM GAS  C:\Users\Gary\AppData\Local\Temp\ccblFkYf.s 			page 10


 383 0022 FBE7     		b	.L28
 384              	.L30:
 385              		.align	2
 386              	.L29:
 387 0024 00000000 		.word	.LANCHOR0
 388              		.cfi_endproc
 389              	.LFE35:
 390              		.size	main, .-main
 391              		.global	MAX_BUFFER_SIZE
 392              		.data
 393              		.align	2
 394              		.set	.LANCHOR0,. + 0
 395              		.type	MAX_BUFFER_SIZE, %object
 396              		.size	MAX_BUFFER_SIZE, 4
 397              	MAX_BUFFER_SIZE:
 398 0000 19000000 		.word	25
 399              		.section	.rodata.str1.4,"aMS",%progbits,1
 400              		.align	2
 401              	.LC0:
 402 0000 456E7465 		.ascii	"Enter the first string: \000"
 402      72207468 
 402      65206669 
 402      72737420 
 402      73747269 
 403 0019 000000   		.space	3
 404              	.LC2:
 405 001c 0A0D00   		.ascii	"\012\015\000"
 406 001f 00       		.space	1
 407              	.LC4:
 408 0020 54686520 		.ascii	"The word count is \000"
 408      776F7264 
 408      20636F75 
 408      6E742069 
 408      732000
 409 0033 00       		.space	1
 410              	.LC6:
 411 0034 54686520 		.ascii	"The longest word is \000"
 411      6C6F6E67 
 411      65737420 
 411      776F7264 
 411      20697320 
 412 0049 000000   		.space	3
 413              	.LC8:
 414 004c 54686520 		.ascii	"The word with the most vowels has \000"
 414      776F7264 
 414      20776974 
 414      68207468 
 414      65206D6F 
 415 006f 00       		.text
 416              	.Letext0:
 417              		.file 2 "Generated_Source\\PSoC4/cytypes.h"
 418              		.file 3 "Generated_Source\\PSoC4/UART_1.h"