ARM GAS  C:\Users\Gary\AppData\Local\Temp\ccL8fc7d.s 			page 1


   1              		.cpu cortex-m0
   2              		.fpu softvfp
   3              		.eabi_attribute 20, 1
   4              		.eabi_attribute 21, 1
   5              		.eabi_attribute 23, 3
   6              		.eabi_attribute 24, 1
   7              		.eabi_attribute 25, 1
   8              		.eabi_attribute 26, 1
   9              		.eabi_attribute 30, 1
  10              		.eabi_attribute 34, 0
  11              		.eabi_attribute 18, 4
  12              		.code	16
  13              		.file	"cyfitter_cfg.c"
  14              		.text
  15              	.Ltext0:
  16              		.cfi_sections	.debug_frame
  17              		.section	.text.cfg_write_bytes32,"ax",%progbits
  18              		.align	2
  19              		.code	16
  20              		.thumb_func
  21              		.type	cfg_write_bytes32, %function
  22              	cfg_write_bytes32:
  23              	.LFB3:
  24              		.file 1 ".\\Generated_Source\\PSoC4\\cyfitter_cfg.c"
   1:.\Generated_Source\PSoC4/cyfitter_cfg.c **** /*******************************************************************************
   2:.\Generated_Source\PSoC4/cyfitter_cfg.c **** * File Name: cyfitter_cfg.c
   3:.\Generated_Source\PSoC4/cyfitter_cfg.c **** * 
   4:.\Generated_Source\PSoC4/cyfitter_cfg.c **** * PSoC Creator  3.3 CP1
   5:.\Generated_Source\PSoC4/cyfitter_cfg.c **** *
   6:.\Generated_Source\PSoC4/cyfitter_cfg.c **** * Description:
   7:.\Generated_Source\PSoC4/cyfitter_cfg.c **** * This file contains device initialization code.
   8:.\Generated_Source\PSoC4/cyfitter_cfg.c **** * Except for the user defined sections in CyClockStartupError(), this file should not be modified.
   9:.\Generated_Source\PSoC4/cyfitter_cfg.c **** * This file is automatically generated by PSoC Creator.
  10:.\Generated_Source\PSoC4/cyfitter_cfg.c **** *
  11:.\Generated_Source\PSoC4/cyfitter_cfg.c **** ********************************************************************************
  12:.\Generated_Source\PSoC4/cyfitter_cfg.c **** * Copyright (c) 2007-2015 Cypress Semiconductor.  All rights reserved.
  13:.\Generated_Source\PSoC4/cyfitter_cfg.c **** * You may use this file only in accordance with the license, terms, conditions, 
  14:.\Generated_Source\PSoC4/cyfitter_cfg.c **** * disclaimers, and limitations in the end user license agreement accompanying 
  15:.\Generated_Source\PSoC4/cyfitter_cfg.c **** * the software package with which this file was provided.
  16:.\Generated_Source\PSoC4/cyfitter_cfg.c **** ********************************************************************************/
  17:.\Generated_Source\PSoC4/cyfitter_cfg.c **** 
  18:.\Generated_Source\PSoC4/cyfitter_cfg.c **** #include <string.h>
  19:.\Generated_Source\PSoC4/cyfitter_cfg.c **** #include "cytypes.h"
  20:.\Generated_Source\PSoC4/cyfitter_cfg.c **** #include "cydevice_trm.h"
  21:.\Generated_Source\PSoC4/cyfitter_cfg.c **** #include "cyfitter.h"
  22:.\Generated_Source\PSoC4/cyfitter_cfg.c **** #include "CyLib.h"
  23:.\Generated_Source\PSoC4/cyfitter_cfg.c **** #include "CyLFClk.h"
  24:.\Generated_Source\PSoC4/cyfitter_cfg.c **** #include "cyfitter_cfg.h"
  25:.\Generated_Source\PSoC4/cyfitter_cfg.c **** 
  26:.\Generated_Source\PSoC4/cyfitter_cfg.c **** 
  27:.\Generated_Source\PSoC4/cyfitter_cfg.c **** #if defined(__GNUC__) || defined(__ARMCC_VERSION)
  28:.\Generated_Source\PSoC4/cyfitter_cfg.c ****     #define CYPACKED 
  29:.\Generated_Source\PSoC4/cyfitter_cfg.c ****     #define CYPACKED_ATTR __attribute__ ((packed))
  30:.\Generated_Source\PSoC4/cyfitter_cfg.c ****     #define CYALIGNED __attribute__ ((aligned))
  31:.\Generated_Source\PSoC4/cyfitter_cfg.c ****     #define CY_CFG_UNUSED __attribute__ ((unused))
  32:.\Generated_Source\PSoC4/cyfitter_cfg.c ****     #define CY_CFG_SECTION __attribute__ ((section(".psocinit")))
  33:.\Generated_Source\PSoC4/cyfitter_cfg.c ****     
ARM GAS  C:\Users\Gary\AppData\Local\Temp\ccL8fc7d.s 			page 2


  34:.\Generated_Source\PSoC4/cyfitter_cfg.c ****     #if defined(__ARMCC_VERSION)
  35:.\Generated_Source\PSoC4/cyfitter_cfg.c ****         #define CY_CFG_MEMORY_BARRIER() __memory_changed()
  36:.\Generated_Source\PSoC4/cyfitter_cfg.c ****     #else
  37:.\Generated_Source\PSoC4/cyfitter_cfg.c ****         #define CY_CFG_MEMORY_BARRIER() __sync_synchronize()
  38:.\Generated_Source\PSoC4/cyfitter_cfg.c ****     #endif
  39:.\Generated_Source\PSoC4/cyfitter_cfg.c ****     
  40:.\Generated_Source\PSoC4/cyfitter_cfg.c **** #elif defined(__ICCARM__)
  41:.\Generated_Source\PSoC4/cyfitter_cfg.c ****     #include <intrinsics.h>
  42:.\Generated_Source\PSoC4/cyfitter_cfg.c **** 
  43:.\Generated_Source\PSoC4/cyfitter_cfg.c ****     #define CYPACKED __packed
  44:.\Generated_Source\PSoC4/cyfitter_cfg.c ****     #define CYPACKED_ATTR 
  45:.\Generated_Source\PSoC4/cyfitter_cfg.c ****     #define CYALIGNED _Pragma("data_alignment=4")
  46:.\Generated_Source\PSoC4/cyfitter_cfg.c ****     #define CY_CFG_UNUSED _Pragma("diag_suppress=Pe177")
  47:.\Generated_Source\PSoC4/cyfitter_cfg.c ****     #define CY_CFG_SECTION _Pragma("location=\".psocinit\"")
  48:.\Generated_Source\PSoC4/cyfitter_cfg.c ****     
  49:.\Generated_Source\PSoC4/cyfitter_cfg.c ****     #define CY_CFG_MEMORY_BARRIER() __DMB()
  50:.\Generated_Source\PSoC4/cyfitter_cfg.c ****     
  51:.\Generated_Source\PSoC4/cyfitter_cfg.c **** #else
  52:.\Generated_Source\PSoC4/cyfitter_cfg.c ****     #error Unsupported toolchain
  53:.\Generated_Source\PSoC4/cyfitter_cfg.c **** #endif
  54:.\Generated_Source\PSoC4/cyfitter_cfg.c **** 
  55:.\Generated_Source\PSoC4/cyfitter_cfg.c **** 
  56:.\Generated_Source\PSoC4/cyfitter_cfg.c **** CY_CFG_UNUSED
  57:.\Generated_Source\PSoC4/cyfitter_cfg.c **** static void CYMEMZERO(void *s, size_t n);
  58:.\Generated_Source\PSoC4/cyfitter_cfg.c **** CY_CFG_UNUSED
  59:.\Generated_Source\PSoC4/cyfitter_cfg.c **** static void CYMEMZERO(void *s, size_t n)
  60:.\Generated_Source\PSoC4/cyfitter_cfg.c **** {
  61:.\Generated_Source\PSoC4/cyfitter_cfg.c **** 	(void)memset(s, 0, n);
  62:.\Generated_Source\PSoC4/cyfitter_cfg.c **** }
  63:.\Generated_Source\PSoC4/cyfitter_cfg.c **** CY_CFG_UNUSED
  64:.\Generated_Source\PSoC4/cyfitter_cfg.c **** static void CYCONFIGCPY(void *dest, const void *src, size_t n);
  65:.\Generated_Source\PSoC4/cyfitter_cfg.c **** CY_CFG_UNUSED
  66:.\Generated_Source\PSoC4/cyfitter_cfg.c **** static void CYCONFIGCPY(void *dest, const void *src, size_t n)
  67:.\Generated_Source\PSoC4/cyfitter_cfg.c **** {
  68:.\Generated_Source\PSoC4/cyfitter_cfg.c **** 	(void)memcpy(dest, src, n);
  69:.\Generated_Source\PSoC4/cyfitter_cfg.c **** }
  70:.\Generated_Source\PSoC4/cyfitter_cfg.c **** CY_CFG_UNUSED
  71:.\Generated_Source\PSoC4/cyfitter_cfg.c **** static void CYCONFIGCPYCODE(void *dest, const void *src, size_t n);
  72:.\Generated_Source\PSoC4/cyfitter_cfg.c **** CY_CFG_UNUSED
  73:.\Generated_Source\PSoC4/cyfitter_cfg.c **** static void CYCONFIGCPYCODE(void *dest, const void *src, size_t n)
  74:.\Generated_Source\PSoC4/cyfitter_cfg.c **** {
  75:.\Generated_Source\PSoC4/cyfitter_cfg.c **** 	(void)memcpy(dest, src, n);
  76:.\Generated_Source\PSoC4/cyfitter_cfg.c **** }
  77:.\Generated_Source\PSoC4/cyfitter_cfg.c **** 
  78:.\Generated_Source\PSoC4/cyfitter_cfg.c **** 
  79:.\Generated_Source\PSoC4/cyfitter_cfg.c **** 
  80:.\Generated_Source\PSoC4/cyfitter_cfg.c **** /* Clock startup error codes                                                   */
  81:.\Generated_Source\PSoC4/cyfitter_cfg.c **** #define CYCLOCKSTART_NO_ERROR    0u
  82:.\Generated_Source\PSoC4/cyfitter_cfg.c **** #define CYCLOCKSTART_XTAL_ERROR  1u
  83:.\Generated_Source\PSoC4/cyfitter_cfg.c **** #define CYCLOCKSTART_32KHZ_ERROR 2u
  84:.\Generated_Source\PSoC4/cyfitter_cfg.c **** #define CYCLOCKSTART_PLL_ERROR   3u
  85:.\Generated_Source\PSoC4/cyfitter_cfg.c **** 
  86:.\Generated_Source\PSoC4/cyfitter_cfg.c **** #ifdef CY_NEED_CYCLOCKSTARTUPERROR
  87:.\Generated_Source\PSoC4/cyfitter_cfg.c **** /*******************************************************************************
  88:.\Generated_Source\PSoC4/cyfitter_cfg.c **** * Function Name: CyClockStartupError
  89:.\Generated_Source\PSoC4/cyfitter_cfg.c **** ********************************************************************************
  90:.\Generated_Source\PSoC4/cyfitter_cfg.c **** * Summary:
ARM GAS  C:\Users\Gary\AppData\Local\Temp\ccL8fc7d.s 			page 3


  91:.\Generated_Source\PSoC4/cyfitter_cfg.c **** *  If an error is encountered during clock configuration (crystal startup error,
  92:.\Generated_Source\PSoC4/cyfitter_cfg.c **** *  PLL lock error, etc.), the system will end up here.  Unless reimplemented by
  93:.\Generated_Source\PSoC4/cyfitter_cfg.c **** *  the customer, this function will stop in an infinite loop.
  94:.\Generated_Source\PSoC4/cyfitter_cfg.c **** *
  95:.\Generated_Source\PSoC4/cyfitter_cfg.c **** * Parameters:
  96:.\Generated_Source\PSoC4/cyfitter_cfg.c **** *   void
  97:.\Generated_Source\PSoC4/cyfitter_cfg.c **** *
  98:.\Generated_Source\PSoC4/cyfitter_cfg.c **** * Return:
  99:.\Generated_Source\PSoC4/cyfitter_cfg.c **** *   void
 100:.\Generated_Source\PSoC4/cyfitter_cfg.c **** *
 101:.\Generated_Source\PSoC4/cyfitter_cfg.c **** *******************************************************************************/
 102:.\Generated_Source\PSoC4/cyfitter_cfg.c **** CY_CFG_UNUSED
 103:.\Generated_Source\PSoC4/cyfitter_cfg.c **** static void CyClockStartupError(uint8 errorCode);
 104:.\Generated_Source\PSoC4/cyfitter_cfg.c **** CY_CFG_UNUSED
 105:.\Generated_Source\PSoC4/cyfitter_cfg.c **** static void CyClockStartupError(uint8 errorCode)
 106:.\Generated_Source\PSoC4/cyfitter_cfg.c **** {
 107:.\Generated_Source\PSoC4/cyfitter_cfg.c ****     /* To remove the compiler warning if errorCode not used.                */
 108:.\Generated_Source\PSoC4/cyfitter_cfg.c ****     errorCode = errorCode;
 109:.\Generated_Source\PSoC4/cyfitter_cfg.c **** 
 110:.\Generated_Source\PSoC4/cyfitter_cfg.c ****     /* `#START CyClockStartupError` */
 111:.\Generated_Source\PSoC4/cyfitter_cfg.c **** 
 112:.\Generated_Source\PSoC4/cyfitter_cfg.c ****     /* If we have a clock startup error (bad MHz crystal, PLL lock, etc.),  */
 113:.\Generated_Source\PSoC4/cyfitter_cfg.c ****     /* we will end up here to allow the customer to implement something to  */
 114:.\Generated_Source\PSoC4/cyfitter_cfg.c ****     /* deal with the clock condition.                                       */
 115:.\Generated_Source\PSoC4/cyfitter_cfg.c **** 
 116:.\Generated_Source\PSoC4/cyfitter_cfg.c ****     /* `#END` */
 117:.\Generated_Source\PSoC4/cyfitter_cfg.c **** 
 118:.\Generated_Source\PSoC4/cyfitter_cfg.c ****     /* If nothing else, stop here since the clocks have not started         */
 119:.\Generated_Source\PSoC4/cyfitter_cfg.c ****     /* correctly.                                                           */
 120:.\Generated_Source\PSoC4/cyfitter_cfg.c ****     while(1) {}
 121:.\Generated_Source\PSoC4/cyfitter_cfg.c **** }
 122:.\Generated_Source\PSoC4/cyfitter_cfg.c **** #endif
 123:.\Generated_Source\PSoC4/cyfitter_cfg.c **** 
 124:.\Generated_Source\PSoC4/cyfitter_cfg.c **** #define CY_CFG_BASE_ADDR_COUNT 8u
 125:.\Generated_Source\PSoC4/cyfitter_cfg.c **** CYPACKED typedef struct
 126:.\Generated_Source\PSoC4/cyfitter_cfg.c **** {
 127:.\Generated_Source\PSoC4/cyfitter_cfg.c **** 	uint8 offset;
 128:.\Generated_Source\PSoC4/cyfitter_cfg.c **** 	uint8 value;
 129:.\Generated_Source\PSoC4/cyfitter_cfg.c **** } CYPACKED_ATTR cy_cfg_addrvalue_t;
 130:.\Generated_Source\PSoC4/cyfitter_cfg.c **** 
 131:.\Generated_Source\PSoC4/cyfitter_cfg.c **** 
 132:.\Generated_Source\PSoC4/cyfitter_cfg.c **** 
 133:.\Generated_Source\PSoC4/cyfitter_cfg.c **** /*******************************************************************************
 134:.\Generated_Source\PSoC4/cyfitter_cfg.c **** * Function Name: cfg_write_bytes32
 135:.\Generated_Source\PSoC4/cyfitter_cfg.c **** ********************************************************************************
 136:.\Generated_Source\PSoC4/cyfitter_cfg.c **** * Summary:
 137:.\Generated_Source\PSoC4/cyfitter_cfg.c **** *  This function is used for setting up the chip configuration areas that
 138:.\Generated_Source\PSoC4/cyfitter_cfg.c **** *  contain relatively sparse data.
 139:.\Generated_Source\PSoC4/cyfitter_cfg.c **** *
 140:.\Generated_Source\PSoC4/cyfitter_cfg.c **** * Parameters:
 141:.\Generated_Source\PSoC4/cyfitter_cfg.c **** *   void
 142:.\Generated_Source\PSoC4/cyfitter_cfg.c **** *
 143:.\Generated_Source\PSoC4/cyfitter_cfg.c **** * Return:
 144:.\Generated_Source\PSoC4/cyfitter_cfg.c **** *   void
 145:.\Generated_Source\PSoC4/cyfitter_cfg.c **** *
 146:.\Generated_Source\PSoC4/cyfitter_cfg.c **** *******************************************************************************/
 147:.\Generated_Source\PSoC4/cyfitter_cfg.c **** static void cfg_write_bytes32(const uint32 addr_table[], const cy_cfg_addrvalue_t data_table[]);
ARM GAS  C:\Users\Gary\AppData\Local\Temp\ccL8fc7d.s 			page 4


 148:.\Generated_Source\PSoC4/cyfitter_cfg.c **** static void cfg_write_bytes32(const uint32 addr_table[], const cy_cfg_addrvalue_t data_table[])
 149:.\Generated_Source\PSoC4/cyfitter_cfg.c **** {
  25              		.loc 1 149 0
  26              		.cfi_startproc
  27              	.LVL0:
  28 0000 F0B5     		push	{r4, r5, r6, r7, lr}
  29              		.cfi_def_cfa_offset 20
  30              		.cfi_offset 4, -20
  31              		.cfi_offset 5, -16
  32              		.cfi_offset 6, -12
  33              		.cfi_offset 7, -8
  34              		.cfi_offset 14, -4
  35              	.LVL1:
 150:.\Generated_Source\PSoC4/cyfitter_cfg.c **** 	/* For 32-bit little-endian architectures */
 151:.\Generated_Source\PSoC4/cyfitter_cfg.c **** 	uint32 i, j = 0u;
  36              		.loc 1 151 0
  37 0002 0025     		mov	r5, #0
 152:.\Generated_Source\PSoC4/cyfitter_cfg.c **** 	for (i = 0u; i < CY_CFG_BASE_ADDR_COUNT; i++)
  38              		.loc 1 152 0
  39 0004 0027     		mov	r7, #0
  40 0006 11E0     		b	.L2
  41              	.LVL2:
  42              	.L5:
  43              	.LBB2:
 153:.\Generated_Source\PSoC4/cyfitter_cfg.c **** 	{
 154:.\Generated_Source\PSoC4/cyfitter_cfg.c **** 		uint32 baseAddr = addr_table[i];
  44              		.loc 1 154 0
  45 0008 BB00     		lsl	r3, r7, #2
  46 000a C658     		ldr	r6, [r0, r3]
  47              	.LVL3:
 155:.\Generated_Source\PSoC4/cyfitter_cfg.c **** 		uint8 count = (uint8)baseAddr;
  48              		.loc 1 155 0
  49 000c F3B2     		uxtb	r3, r6
  50              	.LVL4:
 156:.\Generated_Source\PSoC4/cyfitter_cfg.c **** 		baseAddr &= 0xFFFFFF00u;
  51              		.loc 1 156 0
  52 000e FF22     		mov	r2, #255
  53 0010 9643     		bic	r6, r2
  54              	.LVL5:
 157:.\Generated_Source\PSoC4/cyfitter_cfg.c **** 		while (count != 0u)
  55              		.loc 1 157 0
  56 0012 08E0     		b	.L3
  57              	.L4:
 158:.\Generated_Source\PSoC4/cyfitter_cfg.c **** 		{
 159:.\Generated_Source\PSoC4/cyfitter_cfg.c **** 			CY_SET_XTND_REG8((void CYFAR *)(baseAddr + data_table[j].offset), data_table[j].value);
  58              		.loc 1 159 0
  59 0014 6A00     		lsl	r2, r5, #1
  60 0016 8A18     		add	r2, r1, r2
  61 0018 1478     		ldrb	r4, [r2]
  62 001a A419     		add	r4, r4, r6
  63 001c 5278     		ldrb	r2, [r2, #1]
  64 001e 2270     		strb	r2, [r4]
 160:.\Generated_Source\PSoC4/cyfitter_cfg.c **** 			j++;
  65              		.loc 1 160 0
  66 0020 0135     		add	r5, r5, #1
  67              	.LVL6:
 161:.\Generated_Source\PSoC4/cyfitter_cfg.c **** 			count--;
ARM GAS  C:\Users\Gary\AppData\Local\Temp\ccL8fc7d.s 			page 5


  68              		.loc 1 161 0
  69 0022 013B     		sub	r3, r3, #1
  70              	.LVL7:
  71 0024 DBB2     		uxtb	r3, r3
  72              	.LVL8:
  73              	.L3:
 157:.\Generated_Source\PSoC4/cyfitter_cfg.c **** 		{
  74              		.loc 1 157 0
  75 0026 002B     		cmp	r3, #0
  76 0028 F4D1     		bne	.L4
  77              	.LBE2:
 152:.\Generated_Source\PSoC4/cyfitter_cfg.c **** 	{
  78              		.loc 1 152 0 discriminator 2
  79 002a 0137     		add	r7, r7, #1
  80              	.LVL9:
  81              	.L2:
 152:.\Generated_Source\PSoC4/cyfitter_cfg.c **** 	{
  82              		.loc 1 152 0 is_stmt 0 discriminator 1
  83 002c 072F     		cmp	r7, #7
  84 002e EBD9     		bls	.L5
 162:.\Generated_Source\PSoC4/cyfitter_cfg.c **** 		}
 163:.\Generated_Source\PSoC4/cyfitter_cfg.c **** 	}
 164:.\Generated_Source\PSoC4/cyfitter_cfg.c **** }
  85              		.loc 1 164 0 is_stmt 1
  86              		@ sp needed
  87              	.LVL10:
  88              	.LVL11:
  89 0030 F0BD     		pop	{r4, r5, r6, r7, pc}
  90              		.cfi_endproc
  91              	.LFE3:
  92              		.size	cfg_write_bytes32, .-cfg_write_bytes32
  93 0032 C046     		.section	.text.CYMEMZERO,"ax",%progbits
  94              		.align	2
  95              		.code	16
  96              		.thumb_func
  97              		.type	CYMEMZERO, %function
  98              	CYMEMZERO:
  99              	.LFB0:
  60:.\Generated_Source\PSoC4/cyfitter_cfg.c **** 	(void)memset(s, 0, n);
 100              		.loc 1 60 0
 101              		.cfi_startproc
 102              	.LVL12:
 103 0000 08B5     		push	{r3, lr}
 104              		.cfi_def_cfa_offset 8
 105              		.cfi_offset 3, -8
 106              		.cfi_offset 14, -4
 107 0002 0A1C     		mov	r2, r1
  61:.\Generated_Source\PSoC4/cyfitter_cfg.c **** }
 108              		.loc 1 61 0
 109 0004 0021     		mov	r1, #0
 110              	.LVL13:
 111 0006 FFF7FEFF 		bl	memset
 112              	.LVL14:
  62:.\Generated_Source\PSoC4/cyfitter_cfg.c **** CY_CFG_UNUSED
 113              		.loc 1 62 0
 114              		@ sp needed
 115 000a 08BD     		pop	{r3, pc}
ARM GAS  C:\Users\Gary\AppData\Local\Temp\ccL8fc7d.s 			page 6


 116              		.cfi_endproc
 117              	.LFE0:
 118              		.size	CYMEMZERO, .-CYMEMZERO
 119              		.section	.text.CYCONFIGCPYCODE,"ax",%progbits
 120              		.align	2
 121              		.code	16
 122              		.thumb_func
 123              		.type	CYCONFIGCPYCODE, %function
 124              	CYCONFIGCPYCODE:
 125              	.LFB2:
  74:.\Generated_Source\PSoC4/cyfitter_cfg.c **** 	(void)memcpy(dest, src, n);
 126              		.loc 1 74 0
 127              		.cfi_startproc
 128              	.LVL15:
 129 0000 08B5     		push	{r3, lr}
 130              		.cfi_def_cfa_offset 8
 131              		.cfi_offset 3, -8
 132              		.cfi_offset 14, -4
  75:.\Generated_Source\PSoC4/cyfitter_cfg.c **** }
 133              		.loc 1 75 0
 134 0002 FFF7FEFF 		bl	memcpy
 135              	.LVL16:
  76:.\Generated_Source\PSoC4/cyfitter_cfg.c **** 
 136              		.loc 1 76 0
 137              		@ sp needed
 138 0006 08BD     		pop	{r3, pc}
 139              		.cfi_endproc
 140              	.LFE2:
 141              		.size	CYCONFIGCPYCODE, .-CYCONFIGCPYCODE
 142              		.section	.psocinit,"ax",%progbits
 143              		.align	2
 144              		.code	16
 145              		.thumb_func
 146              		.type	ClockSetup, %function
 147              	ClockSetup:
 148              	.LFB4:
 165:.\Generated_Source\PSoC4/cyfitter_cfg.c **** 
 166:.\Generated_Source\PSoC4/cyfitter_cfg.c **** 
 167:.\Generated_Source\PSoC4/cyfitter_cfg.c **** /*******************************************************************************
 168:.\Generated_Source\PSoC4/cyfitter_cfg.c **** * Function Name: ClockSetup
 169:.\Generated_Source\PSoC4/cyfitter_cfg.c **** ********************************************************************************
 170:.\Generated_Source\PSoC4/cyfitter_cfg.c **** *
 171:.\Generated_Source\PSoC4/cyfitter_cfg.c **** * Summary:
 172:.\Generated_Source\PSoC4/cyfitter_cfg.c **** *   Performs the initialization of all of the clocks in the device based on the
 173:.\Generated_Source\PSoC4/cyfitter_cfg.c **** *   settings in the Clock tab of the DWR.  This includes enabling the requested
 174:.\Generated_Source\PSoC4/cyfitter_cfg.c **** *   clocks and setting the necessary dividers to produce the desired frequency. 
 175:.\Generated_Source\PSoC4/cyfitter_cfg.c **** *
 176:.\Generated_Source\PSoC4/cyfitter_cfg.c **** * Parameters:
 177:.\Generated_Source\PSoC4/cyfitter_cfg.c **** *   void
 178:.\Generated_Source\PSoC4/cyfitter_cfg.c **** *
 179:.\Generated_Source\PSoC4/cyfitter_cfg.c **** * Return:
 180:.\Generated_Source\PSoC4/cyfitter_cfg.c **** *   void
 181:.\Generated_Source\PSoC4/cyfitter_cfg.c **** *
 182:.\Generated_Source\PSoC4/cyfitter_cfg.c **** *******************************************************************************/
 183:.\Generated_Source\PSoC4/cyfitter_cfg.c **** static void ClockSetup(void);
 184:.\Generated_Source\PSoC4/cyfitter_cfg.c **** CY_CFG_SECTION
 185:.\Generated_Source\PSoC4/cyfitter_cfg.c **** static void ClockSetup(void)
ARM GAS  C:\Users\Gary\AppData\Local\Temp\ccL8fc7d.s 			page 7


 186:.\Generated_Source\PSoC4/cyfitter_cfg.c **** {
 149              		.loc 1 186 0
 150              		.cfi_startproc
 151 0000 10B5     		push	{r4, lr}
 152              		.cfi_def_cfa_offset 8
 153              		.cfi_offset 4, -8
 154              		.cfi_offset 14, -4
 187:.\Generated_Source\PSoC4/cyfitter_cfg.c **** 	/* Enable HALF_EN before trimming for the flash accelerator. */
 188:.\Generated_Source\PSoC4/cyfitter_cfg.c **** 	CY_SET_REG32((void CYXDATA *)(CYREG_CLK_SELECT), (CY_GET_REG32((void *)CYREG_CLK_SELECT) | 0x00040
 155              		.loc 1 188 0
 156 0002 124C     		ldr	r4, .L9
 157 0004 2368     		ldr	r3, [r4]
 158 0006 8022     		mov	r2, #128
 159 0008 D202     		lsl	r2, r2, #11
 160 000a 1343     		orr	r3, r2
 161 000c 2360     		str	r3, [r4]
 189:.\Generated_Source\PSoC4/cyfitter_cfg.c **** 
 190:.\Generated_Source\PSoC4/cyfitter_cfg.c **** 	/* Setup and trim IMO based on desired frequency. */
 191:.\Generated_Source\PSoC4/cyfitter_cfg.c **** 	CySysClkWriteImoFreq(24u);
 162              		.loc 1 191 0
 163 000e 1820     		mov	r0, #24
 164 0010 FFF7FEFF 		bl	CySysClkWriteImoFreq
 165              	.LVL17:
 192:.\Generated_Source\PSoC4/cyfitter_cfg.c **** 
 193:.\Generated_Source\PSoC4/cyfitter_cfg.c **** 	/* Disable HALF_EN since it is not required at this IMO frequency. */
 194:.\Generated_Source\PSoC4/cyfitter_cfg.c **** 	CY_SET_REG32((void CYXDATA *)(CYREG_CLK_SELECT), (CY_GET_REG32((void *)CYREG_CLK_SELECT) & 0xFFFBF
 166              		.loc 1 194 0
 167 0014 2268     		ldr	r2, [r4]
 168 0016 0E4B     		ldr	r3, .L9+4
 169 0018 1340     		and	r3, r2
 170 001a 2360     		str	r3, [r4]
 195:.\Generated_Source\PSoC4/cyfitter_cfg.c **** 	/* CYDEV_CLK_ILO_CONFIG Starting address: CYDEV_CLK_ILO_CONFIG */
 196:.\Generated_Source\PSoC4/cyfitter_cfg.c **** 	CY_SET_XTND_REG32((void CYFAR *)(CYREG_CLK_ILO_CONFIG), 0x80000006u);
 171              		.loc 1 196 0
 172 001c 0D4A     		ldr	r2, .L9+8
 173 001e 0E4B     		ldr	r3, .L9+12
 174 0020 1A60     		str	r2, [r3]
 197:.\Generated_Source\PSoC4/cyfitter_cfg.c **** 
 198:.\Generated_Source\PSoC4/cyfitter_cfg.c **** 
 199:.\Generated_Source\PSoC4/cyfitter_cfg.c **** 	/* CYDEV_CLK_SELECT00 Starting address: CYDEV_CLK_SELECT00 */
 200:.\Generated_Source\PSoC4/cyfitter_cfg.c **** 	CY_SET_XTND_REG32((void CYFAR *)(CYREG_CLK_SELECT12), 0x00000010u);
 175              		.loc 1 200 0
 176 0022 1022     		mov	r2, #16
 177 0024 0D4B     		ldr	r3, .L9+16
 178 0026 1A60     		str	r2, [r3]
 201:.\Generated_Source\PSoC4/cyfitter_cfg.c **** 
 202:.\Generated_Source\PSoC4/cyfitter_cfg.c **** 	/* CYDEV_CLK_IMO_CONFIG Starting address: CYDEV_CLK_IMO_CONFIG */
 203:.\Generated_Source\PSoC4/cyfitter_cfg.c **** 	CY_SET_XTND_REG32((void CYFAR *)(CYREG_CLK_IMO_CONFIG), 0x80000000u);
 179              		.loc 1 203 0
 180 0028 8022     		mov	r2, #128
 181 002a 1206     		lsl	r2, r2, #24
 182 002c 0C4B     		ldr	r3, .L9+20
 183 002e 1A60     		str	r2, [r3]
 204:.\Generated_Source\PSoC4/cyfitter_cfg.c **** 
 205:.\Generated_Source\PSoC4/cyfitter_cfg.c **** 	/* CYDEV_CLK_DIVIDER_A00 Starting address: CYDEV_CLK_DIVIDER_A00 */
 206:.\Generated_Source\PSoC4/cyfitter_cfg.c **** 	CY_SET_XTND_REG32((void CYFAR *)(CYREG_CLK_DIVIDER_A00), 0x80000138u);
 184              		.loc 1 206 0
ARM GAS  C:\Users\Gary\AppData\Local\Temp\ccL8fc7d.s 			page 8


 185 0030 0C4A     		ldr	r2, .L9+24
 186 0032 0D4B     		ldr	r3, .L9+28
 187 0034 1A60     		str	r2, [r3]
 207:.\Generated_Source\PSoC4/cyfitter_cfg.c **** 
 208:.\Generated_Source\PSoC4/cyfitter_cfg.c **** 	(void)CyIntSetVector(9u, &CySysWdtIsr);
 188              		.loc 1 208 0
 189 0036 0920     		mov	r0, #9
 190 0038 0C49     		ldr	r1, .L9+32
 191 003a FFF7FEFF 		bl	CyIntSetVector
 192              	.LVL18:
 209:.\Generated_Source\PSoC4/cyfitter_cfg.c **** 	CyIntEnable(9u);
 193              		.loc 1 209 0
 194 003e 0920     		mov	r0, #9
 195 0040 FFF7FEFF 		bl	CyIntEnable
 196              	.LVL19:
 210:.\Generated_Source\PSoC4/cyfitter_cfg.c **** 	CY_SET_XTND_REG32((void CYFAR *)(CYREG_WDT_CONFIG), 0x00000000u);
 197              		.loc 1 210 0
 198 0044 0022     		mov	r2, #0
 199 0046 0A4B     		ldr	r3, .L9+36
 200 0048 1A60     		str	r2, [r3]
 211:.\Generated_Source\PSoC4/cyfitter_cfg.c **** }
 201              		.loc 1 211 0
 202              		@ sp needed
 203 004a 10BD     		pop	{r4, pc}
 204              	.L10:
 205              		.align	2
 206              	.L9:
 207 004c 00010B40 		.word	1074462976
 208 0050 FFFFFBFF 		.word	-262145
 209 0054 06000080 		.word	-2147483642
 210 0058 04010B40 		.word	1074462980
 211 005c 30020240 		.word	1073873456
 212 0060 08010B40 		.word	1074462984
 213 0064 38010080 		.word	-2147483336
 214 0068 00000240 		.word	1073872896
 215 006c 00000000 		.word	CySysWdtIsr
 216 0070 0C020B40 		.word	1074463244
 217              		.cfi_endproc
 218              	.LFE4:
 219              		.size	ClockSetup, .-ClockSetup
 220              		.align	2
 221              		.global	cyfitter_cfg
 222              		.code	16
 223              		.thumb_func
 224              		.type	cyfitter_cfg, %function
 225              	cyfitter_cfg:
 226              	.LFB6:
 212:.\Generated_Source\PSoC4/cyfitter_cfg.c **** 
 213:.\Generated_Source\PSoC4/cyfitter_cfg.c **** 
 214:.\Generated_Source\PSoC4/cyfitter_cfg.c **** /* Analog API Functions */
 215:.\Generated_Source\PSoC4/cyfitter_cfg.c **** 
 216:.\Generated_Source\PSoC4/cyfitter_cfg.c **** 
 217:.\Generated_Source\PSoC4/cyfitter_cfg.c **** /*******************************************************************************
 218:.\Generated_Source\PSoC4/cyfitter_cfg.c **** * Function Name: AnalogSetDefault
 219:.\Generated_Source\PSoC4/cyfitter_cfg.c **** ********************************************************************************
 220:.\Generated_Source\PSoC4/cyfitter_cfg.c **** *
 221:.\Generated_Source\PSoC4/cyfitter_cfg.c **** * Summary:
ARM GAS  C:\Users\Gary\AppData\Local\Temp\ccL8fc7d.s 			page 9


 222:.\Generated_Source\PSoC4/cyfitter_cfg.c **** *  Sets up the analog portions of the chip to default values based on chip
 223:.\Generated_Source\PSoC4/cyfitter_cfg.c **** *  configuration options from the project.
 224:.\Generated_Source\PSoC4/cyfitter_cfg.c **** *
 225:.\Generated_Source\PSoC4/cyfitter_cfg.c **** * Parameters:
 226:.\Generated_Source\PSoC4/cyfitter_cfg.c **** *  void
 227:.\Generated_Source\PSoC4/cyfitter_cfg.c **** *
 228:.\Generated_Source\PSoC4/cyfitter_cfg.c **** * Return:
 229:.\Generated_Source\PSoC4/cyfitter_cfg.c **** *  void
 230:.\Generated_Source\PSoC4/cyfitter_cfg.c **** *
 231:.\Generated_Source\PSoC4/cyfitter_cfg.c **** *******************************************************************************/
 232:.\Generated_Source\PSoC4/cyfitter_cfg.c **** static void AnalogSetDefault(void);
 233:.\Generated_Source\PSoC4/cyfitter_cfg.c **** static void AnalogSetDefault(void)
 234:.\Generated_Source\PSoC4/cyfitter_cfg.c **** {
 235:.\Generated_Source\PSoC4/cyfitter_cfg.c **** }
 236:.\Generated_Source\PSoC4/cyfitter_cfg.c **** 
 237:.\Generated_Source\PSoC4/cyfitter_cfg.c **** #define CY_AMUX_UNUSED CYREG_CM0_ROM_DWT
 238:.\Generated_Source\PSoC4/cyfitter_cfg.c **** 
 239:.\Generated_Source\PSoC4/cyfitter_cfg.c **** 
 240:.\Generated_Source\PSoC4/cyfitter_cfg.c **** /*******************************************************************************
 241:.\Generated_Source\PSoC4/cyfitter_cfg.c **** * Function Name: cyfitter_cfg
 242:.\Generated_Source\PSoC4/cyfitter_cfg.c **** ********************************************************************************
 243:.\Generated_Source\PSoC4/cyfitter_cfg.c **** * Summary:
 244:.\Generated_Source\PSoC4/cyfitter_cfg.c **** *  This function is called by the start-up code for the selected device. It
 245:.\Generated_Source\PSoC4/cyfitter_cfg.c **** *  performs all of the necessary device configuration based on the design
 246:.\Generated_Source\PSoC4/cyfitter_cfg.c **** *  settings.  This includes settings from the Design Wide Resources (DWR) such
 247:.\Generated_Source\PSoC4/cyfitter_cfg.c **** *  as Clocks and Pins as well as any component configuration that is necessary.
 248:.\Generated_Source\PSoC4/cyfitter_cfg.c **** *
 249:.\Generated_Source\PSoC4/cyfitter_cfg.c **** * Parameters:  
 250:.\Generated_Source\PSoC4/cyfitter_cfg.c **** *   void
 251:.\Generated_Source\PSoC4/cyfitter_cfg.c **** *
 252:.\Generated_Source\PSoC4/cyfitter_cfg.c **** * Return:
 253:.\Generated_Source\PSoC4/cyfitter_cfg.c **** *   void
 254:.\Generated_Source\PSoC4/cyfitter_cfg.c **** *
 255:.\Generated_Source\PSoC4/cyfitter_cfg.c **** *******************************************************************************/
 256:.\Generated_Source\PSoC4/cyfitter_cfg.c **** CY_CFG_SECTION
 257:.\Generated_Source\PSoC4/cyfitter_cfg.c **** void cyfitter_cfg(void)
 258:.\Generated_Source\PSoC4/cyfitter_cfg.c **** {
 227              		.loc 1 258 0
 228              		.cfi_startproc
 229 0074 38B5     		push	{r3, r4, r5, lr}
 230              		.cfi_def_cfa_offset 16
 231              		.cfi_offset 3, -16
 232              		.cfi_offset 4, -12
 233              		.cfi_offset 5, -8
 234              		.cfi_offset 14, -4
 259:.\Generated_Source\PSoC4/cyfitter_cfg.c **** 	/* Disable interrupts by default. Let user enable if/when they want. */
 260:.\Generated_Source\PSoC4/cyfitter_cfg.c **** 	CyGlobalIntDisable;
 235              		.loc 1 260 0
 236              	@ 260 ".\Generated_Source\PSoC4\cyfitter_cfg.c" 1
 237 0076 72B6     		CPSID   i
 238              	@ 0 "" 2
 261:.\Generated_Source\PSoC4/cyfitter_cfg.c **** 
 262:.\Generated_Source\PSoC4/cyfitter_cfg.c **** 	/* Enable the clock in the interrupt controller for the routed interrupts */
 263:.\Generated_Source\PSoC4/cyfitter_cfg.c **** 	CY_SET_REG8((void *)CYREG_UDB_UDBIF_INT_CLK_CTL, 0x01u);
 239              		.loc 1 263 0
 240              		.code	16
 241 0078 0122     		mov	r2, #1
ARM GAS  C:\Users\Gary\AppData\Local\Temp\ccL8fc7d.s 			page 10


 242 007a 3B4B     		ldr	r3, .L16
 243 007c 1A70     		strb	r2, [r3]
 244              	.LVL20:
 245              	.LBB3:
 264:.\Generated_Source\PSoC4/cyfitter_cfg.c **** 	{
 265:.\Generated_Source\PSoC4/cyfitter_cfg.c **** 		static const uint32 CYCODE cy_cfg_addr_table[] = {
 266:.\Generated_Source\PSoC4/cyfitter_cfg.c **** 			0x400F0004u, /* Base address: 0x400F0000 Count: 4 */
 267:.\Generated_Source\PSoC4/cyfitter_cfg.c **** 			0x400F302Au, /* Base address: 0x400F3000 Count: 42 */
 268:.\Generated_Source\PSoC4/cyfitter_cfg.c **** 			0x400F3141u, /* Base address: 0x400F3100 Count: 65 */
 269:.\Generated_Source\PSoC4/cyfitter_cfg.c **** 			0x400F326Fu, /* Base address: 0x400F3200 Count: 111 */
 270:.\Generated_Source\PSoC4/cyfitter_cfg.c **** 			0x400F3353u, /* Base address: 0x400F3300 Count: 83 */
 271:.\Generated_Source\PSoC4/cyfitter_cfg.c **** 			0x400F400Bu, /* Base address: 0x400F4000 Count: 11 */
 272:.\Generated_Source\PSoC4/cyfitter_cfg.c **** 			0x400F4105u, /* Base address: 0x400F4100 Count: 5 */
 273:.\Generated_Source\PSoC4/cyfitter_cfg.c **** 			0x400F6002u, /* Base address: 0x400F6000 Count: 2 */
 274:.\Generated_Source\PSoC4/cyfitter_cfg.c **** 		};
 275:.\Generated_Source\PSoC4/cyfitter_cfg.c **** 
 276:.\Generated_Source\PSoC4/cyfitter_cfg.c **** 		static const cy_cfg_addrvalue_t CYCODE cy_cfg_data_table[] = {
 277:.\Generated_Source\PSoC4/cyfitter_cfg.c **** 			{0x80u, 0x72u},
 278:.\Generated_Source\PSoC4/cyfitter_cfg.c **** 			{0x81u, 0x0Du},
 279:.\Generated_Source\PSoC4/cyfitter_cfg.c **** 			{0x82u, 0x38u},
 280:.\Generated_Source\PSoC4/cyfitter_cfg.c **** 			{0x83u, 0x0Fu},
 281:.\Generated_Source\PSoC4/cyfitter_cfg.c **** 			{0x82u, 0x01u},
 282:.\Generated_Source\PSoC4/cyfitter_cfg.c **** 			{0x85u, 0x01u},
 283:.\Generated_Source\PSoC4/cyfitter_cfg.c **** 			{0x86u, 0x02u},
 284:.\Generated_Source\PSoC4/cyfitter_cfg.c **** 			{0x8Eu, 0x04u},
 285:.\Generated_Source\PSoC4/cyfitter_cfg.c **** 			{0x96u, 0x08u},
 286:.\Generated_Source\PSoC4/cyfitter_cfg.c **** 			{0x9Eu, 0x02u},
 287:.\Generated_Source\PSoC4/cyfitter_cfg.c **** 			{0xA6u, 0x01u},
 288:.\Generated_Source\PSoC4/cyfitter_cfg.c **** 			{0xAAu, 0x04u},
 289:.\Generated_Source\PSoC4/cyfitter_cfg.c **** 			{0xB0u, 0x01u},
 290:.\Generated_Source\PSoC4/cyfitter_cfg.c **** 			{0xB1u, 0x01u},
 291:.\Generated_Source\PSoC4/cyfitter_cfg.c **** 			{0xB2u, 0x04u},
 292:.\Generated_Source\PSoC4/cyfitter_cfg.c **** 			{0xB4u, 0x02u},
 293:.\Generated_Source\PSoC4/cyfitter_cfg.c **** 			{0xB6u, 0x08u},
 294:.\Generated_Source\PSoC4/cyfitter_cfg.c **** 			{0xBEu, 0x15u},
 295:.\Generated_Source\PSoC4/cyfitter_cfg.c **** 			{0xBFu, 0x01u},
 296:.\Generated_Source\PSoC4/cyfitter_cfg.c **** 			{0xC0u, 0x46u},
 297:.\Generated_Source\PSoC4/cyfitter_cfg.c **** 			{0xC5u, 0xECu},
 298:.\Generated_Source\PSoC4/cyfitter_cfg.c **** 			{0xC6u, 0x20u},
 299:.\Generated_Source\PSoC4/cyfitter_cfg.c **** 			{0xC8u, 0x0Bu},
 300:.\Generated_Source\PSoC4/cyfitter_cfg.c **** 			{0xC9u, 0xFFu},
 301:.\Generated_Source\PSoC4/cyfitter_cfg.c **** 			{0xCAu, 0xFFu},
 302:.\Generated_Source\PSoC4/cyfitter_cfg.c **** 			{0xCBu, 0xFFu},
 303:.\Generated_Source\PSoC4/cyfitter_cfg.c **** 			{0xCFu, 0x01u},
 304:.\Generated_Source\PSoC4/cyfitter_cfg.c **** 			{0xD0u, 0x18u},
 305:.\Generated_Source\PSoC4/cyfitter_cfg.c **** 			{0xD2u, 0x80u},
 306:.\Generated_Source\PSoC4/cyfitter_cfg.c **** 			{0xD4u, 0x01u},
 307:.\Generated_Source\PSoC4/cyfitter_cfg.c **** 			{0xD6u, 0x04u},
 308:.\Generated_Source\PSoC4/cyfitter_cfg.c **** 			{0xD8u, 0x04u},
 309:.\Generated_Source\PSoC4/cyfitter_cfg.c **** 			{0xD9u, 0x04u},
 310:.\Generated_Source\PSoC4/cyfitter_cfg.c **** 			{0xDAu, 0x04u},
 311:.\Generated_Source\PSoC4/cyfitter_cfg.c **** 			{0xDBu, 0x04u},
 312:.\Generated_Source\PSoC4/cyfitter_cfg.c **** 			{0xDDu, 0x99u},
 313:.\Generated_Source\PSoC4/cyfitter_cfg.c **** 			{0xDFu, 0x01u},
 314:.\Generated_Source\PSoC4/cyfitter_cfg.c **** 			{0xE0u, 0x40u},
 315:.\Generated_Source\PSoC4/cyfitter_cfg.c **** 			{0xE2u, 0x40u},
 316:.\Generated_Source\PSoC4/cyfitter_cfg.c **** 			{0xE4u, 0x40u},
ARM GAS  C:\Users\Gary\AppData\Local\Temp\ccL8fc7d.s 			page 11


 317:.\Generated_Source\PSoC4/cyfitter_cfg.c **** 			{0xE5u, 0x40u},
 318:.\Generated_Source\PSoC4/cyfitter_cfg.c **** 			{0xE6u, 0x80u},
 319:.\Generated_Source\PSoC4/cyfitter_cfg.c **** 			{0xE8u, 0x80u},
 320:.\Generated_Source\PSoC4/cyfitter_cfg.c **** 			{0xEAu, 0x80u},
 321:.\Generated_Source\PSoC4/cyfitter_cfg.c **** 			{0xECu, 0x80u},
 322:.\Generated_Source\PSoC4/cyfitter_cfg.c **** 			{0xEEu, 0x80u},
 323:.\Generated_Source\PSoC4/cyfitter_cfg.c **** 			{0x00u, 0x02u},
 324:.\Generated_Source\PSoC4/cyfitter_cfg.c **** 			{0x03u, 0x28u},
 325:.\Generated_Source\PSoC4/cyfitter_cfg.c **** 			{0x05u, 0x04u},
 326:.\Generated_Source\PSoC4/cyfitter_cfg.c **** 			{0x06u, 0x40u},
 327:.\Generated_Source\PSoC4/cyfitter_cfg.c **** 			{0x07u, 0x02u},
 328:.\Generated_Source\PSoC4/cyfitter_cfg.c **** 			{0x08u, 0x80u},
 329:.\Generated_Source\PSoC4/cyfitter_cfg.c **** 			{0x09u, 0x20u},
 330:.\Generated_Source\PSoC4/cyfitter_cfg.c **** 			{0x0Au, 0xE0u},
 331:.\Generated_Source\PSoC4/cyfitter_cfg.c **** 			{0x0Eu, 0x21u},
 332:.\Generated_Source\PSoC4/cyfitter_cfg.c **** 			{0x10u, 0xA0u},
 333:.\Generated_Source\PSoC4/cyfitter_cfg.c **** 			{0x12u, 0x04u},
 334:.\Generated_Source\PSoC4/cyfitter_cfg.c **** 			{0x13u, 0xA0u},
 335:.\Generated_Source\PSoC4/cyfitter_cfg.c **** 			{0x15u, 0x20u},
 336:.\Generated_Source\PSoC4/cyfitter_cfg.c **** 			{0x16u, 0x20u},
 337:.\Generated_Source\PSoC4/cyfitter_cfg.c **** 			{0x19u, 0xA2u},
 338:.\Generated_Source\PSoC4/cyfitter_cfg.c **** 			{0x1Au, 0x01u},
 339:.\Generated_Source\PSoC4/cyfitter_cfg.c **** 			{0x1Bu, 0x08u},
 340:.\Generated_Source\PSoC4/cyfitter_cfg.c **** 			{0x1Du, 0x40u},
 341:.\Generated_Source\PSoC4/cyfitter_cfg.c **** 			{0x1Eu, 0x98u},
 342:.\Generated_Source\PSoC4/cyfitter_cfg.c **** 			{0x20u, 0x40u},
 343:.\Generated_Source\PSoC4/cyfitter_cfg.c **** 			{0x21u, 0x20u},
 344:.\Generated_Source\PSoC4/cyfitter_cfg.c **** 			{0x22u, 0x04u},
 345:.\Generated_Source\PSoC4/cyfitter_cfg.c **** 			{0x23u, 0x82u},
 346:.\Generated_Source\PSoC4/cyfitter_cfg.c **** 			{0x27u, 0x40u},
 347:.\Generated_Source\PSoC4/cyfitter_cfg.c **** 			{0x29u, 0x60u},
 348:.\Generated_Source\PSoC4/cyfitter_cfg.c **** 			{0x2Au, 0x04u},
 349:.\Generated_Source\PSoC4/cyfitter_cfg.c **** 			{0x31u, 0x20u},
 350:.\Generated_Source\PSoC4/cyfitter_cfg.c **** 			{0x32u, 0x40u},
 351:.\Generated_Source\PSoC4/cyfitter_cfg.c **** 			{0x33u, 0x08u},
 352:.\Generated_Source\PSoC4/cyfitter_cfg.c **** 			{0x38u, 0x60u},
 353:.\Generated_Source\PSoC4/cyfitter_cfg.c **** 			{0x3Au, 0x02u},
 354:.\Generated_Source\PSoC4/cyfitter_cfg.c **** 			{0x3Bu, 0x08u},
 355:.\Generated_Source\PSoC4/cyfitter_cfg.c **** 			{0x3Cu, 0x04u},
 356:.\Generated_Source\PSoC4/cyfitter_cfg.c **** 			{0x40u, 0x01u},
 357:.\Generated_Source\PSoC4/cyfitter_cfg.c **** 			{0x41u, 0x21u},
 358:.\Generated_Source\PSoC4/cyfitter_cfg.c **** 			{0x42u, 0x40u},
 359:.\Generated_Source\PSoC4/cyfitter_cfg.c **** 			{0x46u, 0x40u},
 360:.\Generated_Source\PSoC4/cyfitter_cfg.c **** 			{0x49u, 0xA4u},
 361:.\Generated_Source\PSoC4/cyfitter_cfg.c **** 			{0x4Fu, 0x25u},
 362:.\Generated_Source\PSoC4/cyfitter_cfg.c **** 			{0x51u, 0x10u},
 363:.\Generated_Source\PSoC4/cyfitter_cfg.c **** 			{0x56u, 0x20u},
 364:.\Generated_Source\PSoC4/cyfitter_cfg.c **** 			{0x57u, 0x10u},
 365:.\Generated_Source\PSoC4/cyfitter_cfg.c **** 			{0x59u, 0x10u},
 366:.\Generated_Source\PSoC4/cyfitter_cfg.c **** 			{0x5Au, 0x18u},
 367:.\Generated_Source\PSoC4/cyfitter_cfg.c **** 			{0x5Eu, 0x80u},
 368:.\Generated_Source\PSoC4/cyfitter_cfg.c **** 			{0x5Fu, 0x05u},
 369:.\Generated_Source\PSoC4/cyfitter_cfg.c **** 			{0x67u, 0x40u},
 370:.\Generated_Source\PSoC4/cyfitter_cfg.c **** 			{0x69u, 0x14u},
 371:.\Generated_Source\PSoC4/cyfitter_cfg.c **** 			{0x6Bu, 0x01u},
 372:.\Generated_Source\PSoC4/cyfitter_cfg.c **** 			{0x70u, 0xB0u},
 373:.\Generated_Source\PSoC4/cyfitter_cfg.c **** 			{0x72u, 0x02u},
ARM GAS  C:\Users\Gary\AppData\Local\Temp\ccL8fc7d.s 			page 12


 374:.\Generated_Source\PSoC4/cyfitter_cfg.c **** 			{0x73u, 0x20u},
 375:.\Generated_Source\PSoC4/cyfitter_cfg.c **** 			{0x76u, 0x40u},
 376:.\Generated_Source\PSoC4/cyfitter_cfg.c **** 			{0x83u, 0x40u},
 377:.\Generated_Source\PSoC4/cyfitter_cfg.c **** 			{0x87u, 0x40u},
 378:.\Generated_Source\PSoC4/cyfitter_cfg.c **** 			{0xC0u, 0xBEu},
 379:.\Generated_Source\PSoC4/cyfitter_cfg.c **** 			{0xC2u, 0xAFu},
 380:.\Generated_Source\PSoC4/cyfitter_cfg.c **** 			{0xC4u, 0x6Fu},
 381:.\Generated_Source\PSoC4/cyfitter_cfg.c **** 			{0xCAu, 0x0Eu},
 382:.\Generated_Source\PSoC4/cyfitter_cfg.c **** 			{0xCCu, 0x0Eu},
 383:.\Generated_Source\PSoC4/cyfitter_cfg.c **** 			{0xCEu, 0x4Fu},
 384:.\Generated_Source\PSoC4/cyfitter_cfg.c **** 			{0xD0u, 0x8Du},
 385:.\Generated_Source\PSoC4/cyfitter_cfg.c **** 			{0xD2u, 0x2Cu},
 386:.\Generated_Source\PSoC4/cyfitter_cfg.c **** 			{0xD6u, 0xD2u},
 387:.\Generated_Source\PSoC4/cyfitter_cfg.c **** 			{0xD8u, 0x80u},
 388:.\Generated_Source\PSoC4/cyfitter_cfg.c **** 			{0x01u, 0x80u},
 389:.\Generated_Source\PSoC4/cyfitter_cfg.c **** 			{0x03u, 0x13u},
 390:.\Generated_Source\PSoC4/cyfitter_cfg.c **** 			{0x06u, 0x03u},
 391:.\Generated_Source\PSoC4/cyfitter_cfg.c **** 			{0x08u, 0xDCu},
 392:.\Generated_Source\PSoC4/cyfitter_cfg.c **** 			{0x0Au, 0x22u},
 393:.\Generated_Source\PSoC4/cyfitter_cfg.c **** 			{0x0Bu, 0x08u},
 394:.\Generated_Source\PSoC4/cyfitter_cfg.c **** 			{0x0Cu, 0x10u},
 395:.\Generated_Source\PSoC4/cyfitter_cfg.c **** 			{0x0Eu, 0xACu},
 396:.\Generated_Source\PSoC4/cyfitter_cfg.c **** 			{0x13u, 0x0Cu},
 397:.\Generated_Source\PSoC4/cyfitter_cfg.c **** 			{0x14u, 0x0Cu},
 398:.\Generated_Source\PSoC4/cyfitter_cfg.c **** 			{0x15u, 0x2Cu},
 399:.\Generated_Source\PSoC4/cyfitter_cfg.c **** 			{0x16u, 0x71u},
 400:.\Generated_Source\PSoC4/cyfitter_cfg.c **** 			{0x17u, 0x43u},
 401:.\Generated_Source\PSoC4/cyfitter_cfg.c **** 			{0x1Eu, 0x20u},
 402:.\Generated_Source\PSoC4/cyfitter_cfg.c **** 			{0x20u, 0x09u},
 403:.\Generated_Source\PSoC4/cyfitter_cfg.c **** 			{0x22u, 0xD0u},
 404:.\Generated_Source\PSoC4/cyfitter_cfg.c **** 			{0x24u, 0x10u},
 405:.\Generated_Source\PSoC4/cyfitter_cfg.c **** 			{0x26u, 0x40u},
 406:.\Generated_Source\PSoC4/cyfitter_cfg.c **** 			{0x28u, 0x14u},
 407:.\Generated_Source\PSoC4/cyfitter_cfg.c **** 			{0x29u, 0x71u},
 408:.\Generated_Source\PSoC4/cyfitter_cfg.c **** 			{0x2Bu, 0x0Eu},
 409:.\Generated_Source\PSoC4/cyfitter_cfg.c **** 			{0x2Du, 0x71u},
 410:.\Generated_Source\PSoC4/cyfitter_cfg.c **** 			{0x2Fu, 0x06u},
 411:.\Generated_Source\PSoC4/cyfitter_cfg.c **** 			{0x32u, 0xE0u},
 412:.\Generated_Source\PSoC4/cyfitter_cfg.c **** 			{0x33u, 0x30u},
 413:.\Generated_Source\PSoC4/cyfitter_cfg.c **** 			{0x34u, 0x1Fu},
 414:.\Generated_Source\PSoC4/cyfitter_cfg.c **** 			{0x35u, 0x0Fu},
 415:.\Generated_Source\PSoC4/cyfitter_cfg.c **** 			{0x37u, 0xC0u},
 416:.\Generated_Source\PSoC4/cyfitter_cfg.c **** 			{0x39u, 0x88u},
 417:.\Generated_Source\PSoC4/cyfitter_cfg.c **** 			{0x3Au, 0x08u},
 418:.\Generated_Source\PSoC4/cyfitter_cfg.c **** 			{0x3Bu, 0x20u},
 419:.\Generated_Source\PSoC4/cyfitter_cfg.c **** 			{0x3Fu, 0x04u},
 420:.\Generated_Source\PSoC4/cyfitter_cfg.c **** 			{0x40u, 0x02u},
 421:.\Generated_Source\PSoC4/cyfitter_cfg.c **** 			{0x46u, 0x40u},
 422:.\Generated_Source\PSoC4/cyfitter_cfg.c **** 			{0x49u, 0xFFu},
 423:.\Generated_Source\PSoC4/cyfitter_cfg.c **** 			{0x4Au, 0x07u},
 424:.\Generated_Source\PSoC4/cyfitter_cfg.c **** 			{0x4Bu, 0xFFu},
 425:.\Generated_Source\PSoC4/cyfitter_cfg.c **** 			{0x4Cu, 0x40u},
 426:.\Generated_Source\PSoC4/cyfitter_cfg.c **** 			{0x4Du, 0x20u},
 427:.\Generated_Source\PSoC4/cyfitter_cfg.c **** 			{0x4Eu, 0xF0u},
 428:.\Generated_Source\PSoC4/cyfitter_cfg.c **** 			{0x4Fu, 0x05u},
 429:.\Generated_Source\PSoC4/cyfitter_cfg.c **** 			{0x50u, 0x08u},
 430:.\Generated_Source\PSoC4/cyfitter_cfg.c **** 			{0x54u, 0x18u},
ARM GAS  C:\Users\Gary\AppData\Local\Temp\ccL8fc7d.s 			page 13


 431:.\Generated_Source\PSoC4/cyfitter_cfg.c **** 			{0x56u, 0x04u},
 432:.\Generated_Source\PSoC4/cyfitter_cfg.c **** 			{0x58u, 0x04u},
 433:.\Generated_Source\PSoC4/cyfitter_cfg.c **** 			{0x59u, 0x04u},
 434:.\Generated_Source\PSoC4/cyfitter_cfg.c **** 			{0x5Au, 0x04u},
 435:.\Generated_Source\PSoC4/cyfitter_cfg.c **** 			{0x5Bu, 0x04u},
 436:.\Generated_Source\PSoC4/cyfitter_cfg.c **** 			{0x5Fu, 0x01u},
 437:.\Generated_Source\PSoC4/cyfitter_cfg.c **** 			{0x60u, 0x40u},
 438:.\Generated_Source\PSoC4/cyfitter_cfg.c **** 			{0x61u, 0xA8u},
 439:.\Generated_Source\PSoC4/cyfitter_cfg.c **** 			{0x62u, 0x40u},
 440:.\Generated_Source\PSoC4/cyfitter_cfg.c **** 			{0x63u, 0x20u},
 441:.\Generated_Source\PSoC4/cyfitter_cfg.c **** 			{0x82u, 0x08u},
 442:.\Generated_Source\PSoC4/cyfitter_cfg.c **** 			{0x84u, 0x0Au},
 443:.\Generated_Source\PSoC4/cyfitter_cfg.c **** 			{0x85u, 0x01u},
 444:.\Generated_Source\PSoC4/cyfitter_cfg.c **** 			{0x86u, 0x14u},
 445:.\Generated_Source\PSoC4/cyfitter_cfg.c **** 			{0x87u, 0x0Au},
 446:.\Generated_Source\PSoC4/cyfitter_cfg.c **** 			{0x88u, 0x20u},
 447:.\Generated_Source\PSoC4/cyfitter_cfg.c **** 			{0x89u, 0x13u},
 448:.\Generated_Source\PSoC4/cyfitter_cfg.c **** 			{0x8Au, 0xC0u},
 449:.\Generated_Source\PSoC4/cyfitter_cfg.c **** 			{0x8Eu, 0x15u},
 450:.\Generated_Source\PSoC4/cyfitter_cfg.c **** 			{0x90u, 0x13u},
 451:.\Generated_Source\PSoC4/cyfitter_cfg.c **** 			{0x91u, 0x10u},
 452:.\Generated_Source\PSoC4/cyfitter_cfg.c **** 			{0x92u, 0x0Cu},
 453:.\Generated_Source\PSoC4/cyfitter_cfg.c **** 			{0x94u, 0x80u},
 454:.\Generated_Source\PSoC4/cyfitter_cfg.c **** 			{0x95u, 0x20u},
 455:.\Generated_Source\PSoC4/cyfitter_cfg.c **** 			{0x96u, 0x20u},
 456:.\Generated_Source\PSoC4/cyfitter_cfg.c **** 			{0x98u, 0x40u},
 457:.\Generated_Source\PSoC4/cyfitter_cfg.c **** 			{0x99u, 0x02u},
 458:.\Generated_Source\PSoC4/cyfitter_cfg.c **** 			{0x9Au, 0x20u},
 459:.\Generated_Source\PSoC4/cyfitter_cfg.c **** 			{0x9Bu, 0x09u},
 460:.\Generated_Source\PSoC4/cyfitter_cfg.c **** 			{0x9Cu, 0x13u},
 461:.\Generated_Source\PSoC4/cyfitter_cfg.c **** 			{0x9Eu, 0x04u},
 462:.\Generated_Source\PSoC4/cyfitter_cfg.c **** 			{0xA0u, 0x03u},
 463:.\Generated_Source\PSoC4/cyfitter_cfg.c **** 			{0xA2u, 0x14u},
 464:.\Generated_Source\PSoC4/cyfitter_cfg.c **** 			{0xA4u, 0xE0u},
 465:.\Generated_Source\PSoC4/cyfitter_cfg.c **** 			{0xA5u, 0x13u},
 466:.\Generated_Source\PSoC4/cyfitter_cfg.c **** 			{0xA8u, 0xE0u},
 467:.\Generated_Source\PSoC4/cyfitter_cfg.c **** 			{0xABu, 0x04u},
 468:.\Generated_Source\PSoC4/cyfitter_cfg.c **** 			{0xB0u, 0x0Fu},
 469:.\Generated_Source\PSoC4/cyfitter_cfg.c **** 			{0xB1u, 0x10u},
 470:.\Generated_Source\PSoC4/cyfitter_cfg.c **** 			{0xB3u, 0x20u},
 471:.\Generated_Source\PSoC4/cyfitter_cfg.c **** 			{0xB4u, 0xE0u},
 472:.\Generated_Source\PSoC4/cyfitter_cfg.c **** 			{0xB5u, 0x03u},
 473:.\Generated_Source\PSoC4/cyfitter_cfg.c **** 			{0xB6u, 0x10u},
 474:.\Generated_Source\PSoC4/cyfitter_cfg.c **** 			{0xB7u, 0x0Cu},
 475:.\Generated_Source\PSoC4/cyfitter_cfg.c **** 			{0xBAu, 0x02u},
 476:.\Generated_Source\PSoC4/cyfitter_cfg.c **** 			{0xBEu, 0x40u},
 477:.\Generated_Source\PSoC4/cyfitter_cfg.c **** 			{0xBFu, 0x44u},
 478:.\Generated_Source\PSoC4/cyfitter_cfg.c **** 			{0xC0u, 0x54u},
 479:.\Generated_Source\PSoC4/cyfitter_cfg.c **** 			{0xC1u, 0x03u},
 480:.\Generated_Source\PSoC4/cyfitter_cfg.c **** 			{0xC5u, 0x0Eu},
 481:.\Generated_Source\PSoC4/cyfitter_cfg.c **** 			{0xC6u, 0x0Cu},
 482:.\Generated_Source\PSoC4/cyfitter_cfg.c **** 			{0xC7u, 0x0Bu},
 483:.\Generated_Source\PSoC4/cyfitter_cfg.c **** 			{0xC8u, 0x15u},
 484:.\Generated_Source\PSoC4/cyfitter_cfg.c **** 			{0xC9u, 0xFFu},
 485:.\Generated_Source\PSoC4/cyfitter_cfg.c **** 			{0xCAu, 0xFFu},
 486:.\Generated_Source\PSoC4/cyfitter_cfg.c **** 			{0xCBu, 0xFFu},
 487:.\Generated_Source\PSoC4/cyfitter_cfg.c **** 			{0xCEu, 0xF0u},
ARM GAS  C:\Users\Gary\AppData\Local\Temp\ccL8fc7d.s 			page 14


 488:.\Generated_Source\PSoC4/cyfitter_cfg.c **** 			{0xCFu, 0x44u},
 489:.\Generated_Source\PSoC4/cyfitter_cfg.c **** 			{0xD0u, 0x0Cu},
 490:.\Generated_Source\PSoC4/cyfitter_cfg.c **** 			{0xD4u, 0x01u},
 491:.\Generated_Source\PSoC4/cyfitter_cfg.c **** 			{0xD8u, 0x04u},
 492:.\Generated_Source\PSoC4/cyfitter_cfg.c **** 			{0xD9u, 0x04u},
 493:.\Generated_Source\PSoC4/cyfitter_cfg.c **** 			{0xDAu, 0x04u},
 494:.\Generated_Source\PSoC4/cyfitter_cfg.c **** 			{0xDBu, 0x04u},
 495:.\Generated_Source\PSoC4/cyfitter_cfg.c **** 			{0xDFu, 0x01u},
 496:.\Generated_Source\PSoC4/cyfitter_cfg.c **** 			{0xE6u, 0xC0u},
 497:.\Generated_Source\PSoC4/cyfitter_cfg.c **** 			{0xEAu, 0x40u},
 498:.\Generated_Source\PSoC4/cyfitter_cfg.c **** 			{0xEBu, 0x02u},
 499:.\Generated_Source\PSoC4/cyfitter_cfg.c **** 			{0x01u, 0x20u},
 500:.\Generated_Source\PSoC4/cyfitter_cfg.c **** 			{0x02u, 0xA0u},
 501:.\Generated_Source\PSoC4/cyfitter_cfg.c **** 			{0x03u, 0x02u},
 502:.\Generated_Source\PSoC4/cyfitter_cfg.c **** 			{0x04u, 0x04u},
 503:.\Generated_Source\PSoC4/cyfitter_cfg.c **** 			{0x05u, 0x80u},
 504:.\Generated_Source\PSoC4/cyfitter_cfg.c **** 			{0x07u, 0x08u},
 505:.\Generated_Source\PSoC4/cyfitter_cfg.c **** 			{0x0Au, 0x62u},
 506:.\Generated_Source\PSoC4/cyfitter_cfg.c **** 			{0x0Bu, 0x08u},
 507:.\Generated_Source\PSoC4/cyfitter_cfg.c **** 			{0x0Du, 0x08u},
 508:.\Generated_Source\PSoC4/cyfitter_cfg.c **** 			{0x0Fu, 0x02u},
 509:.\Generated_Source\PSoC4/cyfitter_cfg.c **** 			{0x10u, 0x10u},
 510:.\Generated_Source\PSoC4/cyfitter_cfg.c **** 			{0x11u, 0x14u},
 511:.\Generated_Source\PSoC4/cyfitter_cfg.c **** 			{0x12u, 0x40u},
 512:.\Generated_Source\PSoC4/cyfitter_cfg.c **** 			{0x16u, 0x14u},
 513:.\Generated_Source\PSoC4/cyfitter_cfg.c **** 			{0x17u, 0x02u},
 514:.\Generated_Source\PSoC4/cyfitter_cfg.c **** 			{0x19u, 0x60u},
 515:.\Generated_Source\PSoC4/cyfitter_cfg.c **** 			{0x1Au, 0x40u},
 516:.\Generated_Source\PSoC4/cyfitter_cfg.c **** 			{0x1Bu, 0x20u},
 517:.\Generated_Source\PSoC4/cyfitter_cfg.c **** 			{0x1Cu, 0x04u},
 518:.\Generated_Source\PSoC4/cyfitter_cfg.c **** 			{0x1Du, 0x08u},
 519:.\Generated_Source\PSoC4/cyfitter_cfg.c **** 			{0x1Fu, 0x08u},
 520:.\Generated_Source\PSoC4/cyfitter_cfg.c **** 			{0x20u, 0x01u},
 521:.\Generated_Source\PSoC4/cyfitter_cfg.c **** 			{0x21u, 0x01u},
 522:.\Generated_Source\PSoC4/cyfitter_cfg.c **** 			{0x22u, 0x14u},
 523:.\Generated_Source\PSoC4/cyfitter_cfg.c **** 			{0x26u, 0xA0u},
 524:.\Generated_Source\PSoC4/cyfitter_cfg.c **** 			{0x27u, 0x2Au},
 525:.\Generated_Source\PSoC4/cyfitter_cfg.c **** 			{0x28u, 0x10u},
 526:.\Generated_Source\PSoC4/cyfitter_cfg.c **** 			{0x29u, 0x20u},
 527:.\Generated_Source\PSoC4/cyfitter_cfg.c **** 			{0x2Du, 0x80u},
 528:.\Generated_Source\PSoC4/cyfitter_cfg.c **** 			{0x2Eu, 0x40u},
 529:.\Generated_Source\PSoC4/cyfitter_cfg.c **** 			{0x2Fu, 0x08u},
 530:.\Generated_Source\PSoC4/cyfitter_cfg.c **** 			{0x31u, 0x04u},
 531:.\Generated_Source\PSoC4/cyfitter_cfg.c **** 			{0x32u, 0x10u},
 532:.\Generated_Source\PSoC4/cyfitter_cfg.c **** 			{0x33u, 0x01u},
 533:.\Generated_Source\PSoC4/cyfitter_cfg.c **** 			{0x37u, 0x0Au},
 534:.\Generated_Source\PSoC4/cyfitter_cfg.c **** 			{0x39u, 0x10u},
 535:.\Generated_Source\PSoC4/cyfitter_cfg.c **** 			{0x3Bu, 0x08u},
 536:.\Generated_Source\PSoC4/cyfitter_cfg.c **** 			{0x3Cu, 0x20u},
 537:.\Generated_Source\PSoC4/cyfitter_cfg.c **** 			{0x3Fu, 0x02u},
 538:.\Generated_Source\PSoC4/cyfitter_cfg.c **** 			{0x43u, 0x0Au},
 539:.\Generated_Source\PSoC4/cyfitter_cfg.c **** 			{0x47u, 0x20u},
 540:.\Generated_Source\PSoC4/cyfitter_cfg.c **** 			{0x49u, 0x84u},
 541:.\Generated_Source\PSoC4/cyfitter_cfg.c **** 			{0x51u, 0x40u},
 542:.\Generated_Source\PSoC4/cyfitter_cfg.c **** 			{0x52u, 0x44u},
 543:.\Generated_Source\PSoC4/cyfitter_cfg.c **** 			{0x54u, 0x10u},
 544:.\Generated_Source\PSoC4/cyfitter_cfg.c **** 			{0x56u, 0x10u},
ARM GAS  C:\Users\Gary\AppData\Local\Temp\ccL8fc7d.s 			page 15


 545:.\Generated_Source\PSoC4/cyfitter_cfg.c **** 			{0x57u, 0x03u},
 546:.\Generated_Source\PSoC4/cyfitter_cfg.c **** 			{0x58u, 0x02u},
 547:.\Generated_Source\PSoC4/cyfitter_cfg.c **** 			{0x59u, 0x40u},
 548:.\Generated_Source\PSoC4/cyfitter_cfg.c **** 			{0x5Au, 0x18u},
 549:.\Generated_Source\PSoC4/cyfitter_cfg.c **** 			{0x5Du, 0x02u},
 550:.\Generated_Source\PSoC4/cyfitter_cfg.c **** 			{0x65u, 0x10u},
 551:.\Generated_Source\PSoC4/cyfitter_cfg.c **** 			{0x67u, 0x82u},
 552:.\Generated_Source\PSoC4/cyfitter_cfg.c **** 			{0x87u, 0x40u},
 553:.\Generated_Source\PSoC4/cyfitter_cfg.c **** 			{0x8Au, 0x01u},
 554:.\Generated_Source\PSoC4/cyfitter_cfg.c **** 			{0x8Bu, 0x08u},
 555:.\Generated_Source\PSoC4/cyfitter_cfg.c **** 			{0x8Cu, 0x02u},
 556:.\Generated_Source\PSoC4/cyfitter_cfg.c **** 			{0x8Du, 0x44u},
 557:.\Generated_Source\PSoC4/cyfitter_cfg.c **** 			{0x8Eu, 0x10u},
 558:.\Generated_Source\PSoC4/cyfitter_cfg.c **** 			{0x91u, 0x14u},
 559:.\Generated_Source\PSoC4/cyfitter_cfg.c **** 			{0x93u, 0x0Au},
 560:.\Generated_Source\PSoC4/cyfitter_cfg.c **** 			{0x94u, 0x05u},
 561:.\Generated_Source\PSoC4/cyfitter_cfg.c **** 			{0x95u, 0x02u},
 562:.\Generated_Source\PSoC4/cyfitter_cfg.c **** 			{0x96u, 0x20u},
 563:.\Generated_Source\PSoC4/cyfitter_cfg.c **** 			{0x99u, 0x12u},
 564:.\Generated_Source\PSoC4/cyfitter_cfg.c **** 			{0x9Bu, 0x01u},
 565:.\Generated_Source\PSoC4/cyfitter_cfg.c **** 			{0xA7u, 0x20u},
 566:.\Generated_Source\PSoC4/cyfitter_cfg.c **** 			{0xACu, 0x81u},
 567:.\Generated_Source\PSoC4/cyfitter_cfg.c **** 			{0xADu, 0x20u},
 568:.\Generated_Source\PSoC4/cyfitter_cfg.c **** 			{0xAEu, 0x10u},
 569:.\Generated_Source\PSoC4/cyfitter_cfg.c **** 			{0xAFu, 0x04u},
 570:.\Generated_Source\PSoC4/cyfitter_cfg.c **** 			{0xB6u, 0x04u},
 571:.\Generated_Source\PSoC4/cyfitter_cfg.c **** 			{0xB7u, 0x01u},
 572:.\Generated_Source\PSoC4/cyfitter_cfg.c **** 			{0xC0u, 0xEFu},
 573:.\Generated_Source\PSoC4/cyfitter_cfg.c **** 			{0xC2u, 0xAFu},
 574:.\Generated_Source\PSoC4/cyfitter_cfg.c **** 			{0xC4u, 0x7Eu},
 575:.\Generated_Source\PSoC4/cyfitter_cfg.c **** 			{0xCAu, 0x36u},
 576:.\Generated_Source\PSoC4/cyfitter_cfg.c **** 			{0xCCu, 0xC7u},
 577:.\Generated_Source\PSoC4/cyfitter_cfg.c **** 			{0xCEu, 0xA6u},
 578:.\Generated_Source\PSoC4/cyfitter_cfg.c **** 			{0xD0u, 0x23u},
 579:.\Generated_Source\PSoC4/cyfitter_cfg.c **** 			{0xD2u, 0x08u},
 580:.\Generated_Source\PSoC4/cyfitter_cfg.c **** 			{0xD6u, 0x8Fu},
 581:.\Generated_Source\PSoC4/cyfitter_cfg.c **** 			{0xD8u, 0xB0u},
 582:.\Generated_Source\PSoC4/cyfitter_cfg.c **** 			{0x08u, 0x08u},
 583:.\Generated_Source\PSoC4/cyfitter_cfg.c **** 			{0x63u, 0x20u},
 584:.\Generated_Source\PSoC4/cyfitter_cfg.c **** 			{0x6Fu, 0x02u},
 585:.\Generated_Source\PSoC4/cyfitter_cfg.c **** 			{0x73u, 0x02u},
 586:.\Generated_Source\PSoC4/cyfitter_cfg.c **** 			{0x83u, 0x10u},
 587:.\Generated_Source\PSoC4/cyfitter_cfg.c **** 			{0x87u, 0x02u},
 588:.\Generated_Source\PSoC4/cyfitter_cfg.c **** 			{0xC2u, 0x10u},
 589:.\Generated_Source\PSoC4/cyfitter_cfg.c **** 			{0xD8u, 0x40u},
 590:.\Generated_Source\PSoC4/cyfitter_cfg.c **** 			{0xDAu, 0x80u},
 591:.\Generated_Source\PSoC4/cyfitter_cfg.c **** 			{0xDCu, 0x20u},
 592:.\Generated_Source\PSoC4/cyfitter_cfg.c **** 			{0xE6u, 0xC0u},
 593:.\Generated_Source\PSoC4/cyfitter_cfg.c **** 			{0x87u, 0x02u},
 594:.\Generated_Source\PSoC4/cyfitter_cfg.c **** 			{0xA7u, 0x02u},
 595:.\Generated_Source\PSoC4/cyfitter_cfg.c **** 			{0xACu, 0x08u},
 596:.\Generated_Source\PSoC4/cyfitter_cfg.c **** 			{0xE2u, 0x10u},
 597:.\Generated_Source\PSoC4/cyfitter_cfg.c **** 			{0xECu, 0x10u},
 598:.\Generated_Source\PSoC4/cyfitter_cfg.c **** 			{0x10u, 0x01u},
 599:.\Generated_Source\PSoC4/cyfitter_cfg.c **** 			{0x11u, 0x01u},
 600:.\Generated_Source\PSoC4/cyfitter_cfg.c **** 		};
 601:.\Generated_Source\PSoC4/cyfitter_cfg.c **** 
ARM GAS  C:\Users\Gary\AppData\Local\Temp\ccL8fc7d.s 			page 16


 602:.\Generated_Source\PSoC4/cyfitter_cfg.c **** 
 603:.\Generated_Source\PSoC4/cyfitter_cfg.c **** 
 604:.\Generated_Source\PSoC4/cyfitter_cfg.c **** 		CYPACKED typedef struct {
 605:.\Generated_Source\PSoC4/cyfitter_cfg.c **** 			void CYFAR *address;
 606:.\Generated_Source\PSoC4/cyfitter_cfg.c **** 			uint16 size;
 607:.\Generated_Source\PSoC4/cyfitter_cfg.c **** 		} CYPACKED_ATTR cfg_memset_t;
 608:.\Generated_Source\PSoC4/cyfitter_cfg.c **** 
 609:.\Generated_Source\PSoC4/cyfitter_cfg.c **** 
 610:.\Generated_Source\PSoC4/cyfitter_cfg.c **** 		CYPACKED typedef struct {
 611:.\Generated_Source\PSoC4/cyfitter_cfg.c **** 			void CYFAR *dest;
 612:.\Generated_Source\PSoC4/cyfitter_cfg.c **** 			const void CYCODE *src;
 613:.\Generated_Source\PSoC4/cyfitter_cfg.c **** 			uint16 size;
 614:.\Generated_Source\PSoC4/cyfitter_cfg.c **** 		} CYPACKED_ATTR cfg_memcpy_t;
 615:.\Generated_Source\PSoC4/cyfitter_cfg.c **** 
 616:.\Generated_Source\PSoC4/cyfitter_cfg.c **** 		static const cfg_memset_t CYCODE cfg_memset_list [] = {
 617:.\Generated_Source\PSoC4/cyfitter_cfg.c **** 			/* address, size */
 618:.\Generated_Source\PSoC4/cyfitter_cfg.c **** 			{(void CYFAR *)(CYDEV_UDB_P0_U1_BASE), 896u},
 619:.\Generated_Source\PSoC4/cyfitter_cfg.c **** 			{(void CYFAR *)(CYDEV_UDB_DSI0_BASE), 1024u},
 620:.\Generated_Source\PSoC4/cyfitter_cfg.c **** 		};
 621:.\Generated_Source\PSoC4/cyfitter_cfg.c **** 
 622:.\Generated_Source\PSoC4/cyfitter_cfg.c **** 		/* UDB_0_1_0_CONFIG Address: CYDEV_UDB_P0_U0_BASE Size (bytes): 128 */
 623:.\Generated_Source\PSoC4/cyfitter_cfg.c **** 		static const uint8 CYCODE BS_UDB_0_1_0_CONFIG_VAL[] = {
 624:.\Generated_Source\PSoC4/cyfitter_cfg.c **** 			0x41u, 0x10u, 0x00u, 0x00u, 0xC3u, 0x04u, 0x00u, 0x00u, 0x0Fu, 0x08u, 0xF0u, 0x00u, 0x00u, 0x3Cu
 625:.\Generated_Source\PSoC4/cyfitter_cfg.c **** 			0x00u, 0x00u, 0xF3u, 0x00u, 0x82u, 0x3Cu, 0x00u, 0x41u, 0xFFu, 0x7Fu, 0x00u, 0x00u, 0xF3u, 0x00u
 626:.\Generated_Source\PSoC4/cyfitter_cfg.c **** 			0x08u, 0x00u, 0x00u, 0x00u, 0x04u, 0x18u, 0x00u, 0x00u, 0x0Cu, 0x67u, 0x00u, 0x18u, 0x1Cu, 0x00u
 627:.\Generated_Source\PSoC4/cyfitter_cfg.c **** 			0xC0u, 0x1Fu, 0x2Cu, 0x20u, 0x0Fu, 0x00u, 0x1Cu, 0x40u, 0x00u, 0x80u, 0x28u, 0x22u, 0x00u, 0x00u
 628:.\Generated_Source\PSoC4/cyfitter_cfg.c **** 			0x64u, 0x02u, 0x05u, 0x00u, 0x01u, 0x0Cu, 0xE0u, 0x00u, 0x09u, 0xFFu, 0xFFu, 0xFFu, 0x62u, 0xA0u
 629:.\Generated_Source\PSoC4/cyfitter_cfg.c **** 			0x0Cu, 0x00u, 0x00u, 0x00u, 0x00u, 0x00u, 0x02u, 0x12u, 0x04u, 0x04u, 0x04u, 0x04u, 0x00u, 0x00u
 630:.\Generated_Source\PSoC4/cyfitter_cfg.c **** 			0x00u, 0x00u, 0x00u, 0x00u, 0x00u, 0x00u, 0x40u, 0x02u, 0x00u, 0x10u, 0x30u, 0x10u, 0x00u, 0x10u
 631:.\Generated_Source\PSoC4/cyfitter_cfg.c **** 			0x00u, 0x00u, 0x00u, 0x00u, 0x00u, 0x00u, 0x00u, 0x00u, 0x00u, 0x00u, 0x00u, 0x00u, 0x00u, 0x00u
 632:.\Generated_Source\PSoC4/cyfitter_cfg.c **** 
 633:.\Generated_Source\PSoC4/cyfitter_cfg.c **** 		static const cfg_memcpy_t CYCODE cfg_memcpy_list [] = {
 634:.\Generated_Source\PSoC4/cyfitter_cfg.c **** 			/* dest, src, size */
 635:.\Generated_Source\PSoC4/cyfitter_cfg.c **** 			{(void CYFAR *)(CYDEV_UDB_P0_U0_BASE), BS_UDB_0_1_0_CONFIG_VAL, 128u},
 636:.\Generated_Source\PSoC4/cyfitter_cfg.c **** 		};
 637:.\Generated_Source\PSoC4/cyfitter_cfg.c **** 
 638:.\Generated_Source\PSoC4/cyfitter_cfg.c **** 		uint8 CYDATA i;
 639:.\Generated_Source\PSoC4/cyfitter_cfg.c **** 
 640:.\Generated_Source\PSoC4/cyfitter_cfg.c **** 		/* Zero out critical memory blocks before beginning configuration */
 641:.\Generated_Source\PSoC4/cyfitter_cfg.c **** 		for (i = 0u; i < (sizeof(cfg_memset_list)/sizeof(cfg_memset_list[0])); i++)
 246              		.loc 1 641 0
 247 007e 0024     		mov	r4, #0
 248 0080 10E0     		b	.L12
 249              	.LVL21:
 250              	.L13:
 251              	.LBB4:
 642:.\Generated_Source\PSoC4/cyfitter_cfg.c **** 		{
 643:.\Generated_Source\PSoC4/cyfitter_cfg.c **** 			const cfg_memset_t CYCODE * CYDATA ms = &cfg_memset_list[i];
 644:.\Generated_Source\PSoC4/cyfitter_cfg.c **** 			CYMEMZERO(ms->address, (size_t)(uint32)(ms->size));
 252              		.loc 1 644 0 discriminator 3
 253 0082 3A48     		ldr	r0, .L16+4
 254 0084 6300     		lsl	r3, r4, #1
 255 0086 1A19     		add	r2, r3, r4
 256 0088 5200     		lsl	r2, r2, #1
 257 008a 8218     		add	r2, r0, r2
 258 008c 9188     		ldrh	r1, [r2, #4]
 259 008e 1B19     		add	r3, r3, r4
ARM GAS  C:\Users\Gary\AppData\Local\Temp\ccL8fc7d.s 			page 17


 260 0090 5B00     		lsl	r3, r3, #1
 261 0092 1A5A     		ldrh	r2, [r3, r0]
 262 0094 C318     		add	r3, r0, r3
 263 0096 5888     		ldrh	r0, [r3, #2]
 264 0098 0004     		lsl	r0, r0, #16
 265 009a 1043     		orr	r0, r2
 266 009c FFF7FEFF 		bl	CYMEMZERO
 267              	.LVL22:
 268              	.LBE4:
 641:.\Generated_Source\PSoC4/cyfitter_cfg.c **** 		{
 269              		.loc 1 641 0 discriminator 3
 270 00a0 0134     		add	r4, r4, #1
 271              	.LVL23:
 272 00a2 E4B2     		uxtb	r4, r4
 273              	.LVL24:
 274              	.L12:
 641:.\Generated_Source\PSoC4/cyfitter_cfg.c **** 		{
 275              		.loc 1 641 0 is_stmt 0 discriminator 1
 276 00a4 012C     		cmp	r4, #1
 277 00a6 ECD9     		bls	.L13
 278 00a8 0024     		mov	r4, #0
 279              	.LVL25:
 280 00aa 12E0     		b	.L14
 281              	.LVL26:
 282              	.L15:
 283              	.LBB5:
 645:.\Generated_Source\PSoC4/cyfitter_cfg.c **** 		}
 646:.\Generated_Source\PSoC4/cyfitter_cfg.c **** 
 647:.\Generated_Source\PSoC4/cyfitter_cfg.c **** 		/* Copy device configuration data into registers */
 648:.\Generated_Source\PSoC4/cyfitter_cfg.c **** 		for (i = 0u; i < (sizeof(cfg_memcpy_list)/sizeof(cfg_memcpy_list[0])); i++)
 649:.\Generated_Source\PSoC4/cyfitter_cfg.c **** 		{
 650:.\Generated_Source\PSoC4/cyfitter_cfg.c **** 			const cfg_memcpy_t CYCODE * CYDATA mc = &cfg_memcpy_list[i];
 651:.\Generated_Source\PSoC4/cyfitter_cfg.c **** 			void * CYDATA destPtr = mc->dest;
 284              		.loc 1 651 0 is_stmt 1 discriminator 3
 285 00ac 2F4D     		ldr	r5, .L16+4
 286 00ae A300     		lsl	r3, r4, #2
 287 00b0 1A19     		add	r2, r3, r4
 288 00b2 5200     		lsl	r2, r2, #1
 289 00b4 AA18     		add	r2, r5, r2
 290 00b6 9189     		ldrh	r1, [r2, #12]
 291 00b8 D089     		ldrh	r0, [r2, #14]
 292 00ba 0004     		lsl	r0, r0, #16
 293 00bc 0843     		orr	r0, r1
 294              	.LVL27:
 652:.\Generated_Source\PSoC4/cyfitter_cfg.c **** 			const void CYCODE * CYDATA srcPtr = mc->src;
 295              		.loc 1 652 0 discriminator 3
 296 00be 131C     		mov	r3, r2
 297 00c0 128A     		ldrh	r2, [r2, #16]
 298 00c2 598A     		ldrh	r1, [r3, #18]
 299 00c4 0904     		lsl	r1, r1, #16
 300 00c6 1143     		orr	r1, r2
 301              	.LVL28:
 653:.\Generated_Source\PSoC4/cyfitter_cfg.c **** 			uint16 CYDATA numBytes = mc->size;
 654:.\Generated_Source\PSoC4/cyfitter_cfg.c **** 			CYCONFIGCPYCODE(destPtr, srcPtr, numBytes);
 302              		.loc 1 654 0 discriminator 3
 303 00c8 8022     		mov	r2, #128
 304 00ca FFF7FEFF 		bl	CYCONFIGCPYCODE
ARM GAS  C:\Users\Gary\AppData\Local\Temp\ccL8fc7d.s 			page 18


 305              	.LVL29:
 306              	.LBE5:
 648:.\Generated_Source\PSoC4/cyfitter_cfg.c **** 		{
 307              		.loc 1 648 0 discriminator 3
 308 00ce 0134     		add	r4, r4, #1
 309              	.LVL30:
 310 00d0 E4B2     		uxtb	r4, r4
 311              	.LVL31:
 312              	.L14:
 648:.\Generated_Source\PSoC4/cyfitter_cfg.c **** 		{
 313              		.loc 1 648 0 is_stmt 0 discriminator 1
 314 00d2 002C     		cmp	r4, #0
 315 00d4 EAD0     		beq	.L15
 655:.\Generated_Source\PSoC4/cyfitter_cfg.c **** 		}
 656:.\Generated_Source\PSoC4/cyfitter_cfg.c **** 
 657:.\Generated_Source\PSoC4/cyfitter_cfg.c **** 		cfg_write_bytes32(cy_cfg_addr_table, cy_cfg_data_table);
 316              		.loc 1 657 0 is_stmt 1
 317 00d6 2549     		ldr	r1, .L16+4
 318 00d8 081C     		mov	r0, r1
 319 00da 1830     		add	r0, r0, #24
 320 00dc 3831     		add	r1, r1, #56
 321 00de FFF7FEFF 		bl	cfg_write_bytes32
 322              	.LVL32:
 658:.\Generated_Source\PSoC4/cyfitter_cfg.c **** 
 659:.\Generated_Source\PSoC4/cyfitter_cfg.c **** 		/* Perform normal device configuration. Order is not critical for these items. */
 660:.\Generated_Source\PSoC4/cyfitter_cfg.c **** 		CY_SET_XTND_REG16((void CYFAR *)(CYREG_UDB_BCTL0_DRV), 0x0100u);
 323              		.loc 1 660 0
 324 00e2 8022     		mov	r2, #128
 325 00e4 5200     		lsl	r2, r2, #1
 326 00e6 224B     		ldr	r3, .L16+8
 327 00e8 1A80     		strh	r2, [r3]
 661:.\Generated_Source\PSoC4/cyfitter_cfg.c **** 		CY_SET_XTND_REG8((void CYFAR *)(CYREG_UDB_BCTL0_DRV + 0x2u), 0x01u);
 328              		.loc 1 661 0
 329 00ea FF3A     		sub	r2, r2, #255
 330 00ec 214B     		ldr	r3, .L16+12
 331 00ee 1A70     		strb	r2, [r3]
 662:.\Generated_Source\PSoC4/cyfitter_cfg.c **** 
 663:.\Generated_Source\PSoC4/cyfitter_cfg.c **** 		/* HSIOM Starting address: CYDEV_HSIOM_BASE */
 664:.\Generated_Source\PSoC4/cyfitter_cfg.c **** 		CY_SET_XTND_REG32((void CYFAR *)(CYDEV_HSIOM_BASE), 0x00300000u);
 332              		.loc 1 664 0
 333 00f0 C022     		mov	r2, #192
 334 00f2 9203     		lsl	r2, r2, #14
 335 00f4 204B     		ldr	r3, .L16+16
 336 00f6 1A60     		str	r2, [r3]
 665:.\Generated_Source\PSoC4/cyfitter_cfg.c **** 		CY_SET_XTND_REG32((void CYFAR *)(CYREG_HSIOM_PORT_SEL3), 0x0000EE00u);
 337              		.loc 1 665 0
 338 00f8 EE22     		mov	r2, #238
 339 00fa 1202     		lsl	r2, r2, #8
 340 00fc 1F4B     		ldr	r3, .L16+20
 341 00fe 1A60     		str	r2, [r3]
 666:.\Generated_Source\PSoC4/cyfitter_cfg.c **** 
 667:.\Generated_Source\PSoC4/cyfitter_cfg.c **** 		/* UDB_PA_0 Starting address: CYDEV_UDB_PA0_BASE */
 668:.\Generated_Source\PSoC4/cyfitter_cfg.c **** 		CY_SET_XTND_REG32((void CYFAR *)(CYDEV_UDB_PA0_BASE), 0x00990004u);
 342              		.loc 1 668 0
 343 0100 1F4A     		ldr	r2, .L16+24
 344 0102 204B     		ldr	r3, .L16+28
 345 0104 1A60     		str	r2, [r3]
ARM GAS  C:\Users\Gary\AppData\Local\Temp\ccL8fc7d.s 			page 19


 669:.\Generated_Source\PSoC4/cyfitter_cfg.c **** 		CY_SET_XTND_REG32((void CYFAR *)(CYREG_UDB_PA0_CFG4), 0x02000000u);
 346              		.loc 1 669 0
 347 0106 8022     		mov	r2, #128
 348 0108 9204     		lsl	r2, r2, #18
 349 010a 1F4B     		ldr	r3, .L16+32
 350 010c 1A60     		str	r2, [r3]
 670:.\Generated_Source\PSoC4/cyfitter_cfg.c **** 		CY_SET_XTND_REG32((void CYFAR *)(CYREG_UDB_PA0_CFG8), 0x08000000u);
 351              		.loc 1 670 0
 352 010e 8022     		mov	r2, #128
 353 0110 1205     		lsl	r2, r2, #20
 354 0112 1E4B     		ldr	r3, .L16+36
 355 0114 1A60     		str	r2, [r3]
 671:.\Generated_Source\PSoC4/cyfitter_cfg.c **** 
 672:.\Generated_Source\PSoC4/cyfitter_cfg.c **** 		/* UDB_PA_3 Starting address: CYDEV_UDB_PA3_BASE */
 673:.\Generated_Source\PSoC4/cyfitter_cfg.c **** 		CY_SET_XTND_REG32((void CYFAR *)(CYDEV_UDB_PA3_BASE), 0x00990000u);
 356              		.loc 1 673 0
 357 0116 9922     		mov	r2, #153
 358 0118 1204     		lsl	r2, r2, #16
 359 011a 1D4B     		ldr	r3, .L16+40
 360 011c 1A60     		str	r2, [r3]
 674:.\Generated_Source\PSoC4/cyfitter_cfg.c **** 
 675:.\Generated_Source\PSoC4/cyfitter_cfg.c **** 		/* INT_SELECT Starting address: CYDEV_CPUSS_INTR_SELECT */
 676:.\Generated_Source\PSoC4/cyfitter_cfg.c **** 		CY_SET_XTND_REG32((void CYFAR *)(CYREG_CPUSS_INTR_SELECT), 0x00000005u);
 361              		.loc 1 676 0
 362 011e 0522     		mov	r2, #5
 363 0120 1C4B     		ldr	r3, .L16+44
 364 0122 1A60     		str	r2, [r3]
 677:.\Generated_Source\PSoC4/cyfitter_cfg.c **** 
 678:.\Generated_Source\PSoC4/cyfitter_cfg.c **** 		/* INT_CONFIG Starting address: CYDEV_UDB_INT_CFG */
 679:.\Generated_Source\PSoC4/cyfitter_cfg.c **** 		CY_SET_XTND_REG32((void CYFAR *)(CYREG_UDB_INT_CFG), 0x00000006u);
 365              		.loc 1 679 0
 366 0124 0132     		add	r2, r2, #1
 367 0126 1C4B     		ldr	r3, .L16+48
 368 0128 1A60     		str	r2, [r3]
 680:.\Generated_Source\PSoC4/cyfitter_cfg.c **** 
 681:.\Generated_Source\PSoC4/cyfitter_cfg.c **** 		/* Enable digital routing */
 682:.\Generated_Source\PSoC4/cyfitter_cfg.c **** 		CY_SET_XTND_REG8((void *)CYREG_UDB_UDBIF_BANK_CTL, CY_GET_XTND_REG8((void *)CYREG_UDB_UDBIF_BANK_
 369              		.loc 1 682 0
 370 012a 1C4B     		ldr	r3, .L16+52
 371 012c 1978     		ldrb	r1, [r3]
 372 012e 043A     		sub	r2, r2, #4
 373 0130 0A43     		orr	r2, r1
 374 0132 1A70     		strb	r2, [r3]
 683:.\Generated_Source\PSoC4/cyfitter_cfg.c **** 
 684:.\Generated_Source\PSoC4/cyfitter_cfg.c **** 		/* Enable UDB array */
 685:.\Generated_Source\PSoC4/cyfitter_cfg.c **** 		CY_SET_XTND_REG8((void *)CYREG_UDB_UDBIF_WAIT_CFG, (uint8)((CY_GET_XTND_REG8((void *)CYREG_UDB_UD
 375              		.loc 1 685 0
 376 0134 1A48     		ldr	r0, .L16+56
 377 0136 0278     		ldrb	r2, [r0]
 378 0138 3C21     		mov	r1, #60
 379 013a 8A43     		bic	r2, r1
 380 013c 2839     		sub	r1, r1, #40
 381 013e 0A43     		orr	r2, r1
 382 0140 0270     		strb	r2, [r0]
 686:.\Generated_Source\PSoC4/cyfitter_cfg.c **** 		CY_SET_XTND_REG8((void *)CYREG_UDB_UDBIF_BANK_CTL, (uint8)(CY_GET_XTND_REG8((void *)CYREG_UDB_UDB
 383              		.loc 1 686 0
 384 0142 1978     		ldrb	r1, [r3]
ARM GAS  C:\Users\Gary\AppData\Local\Temp\ccL8fc7d.s 			page 20


 385 0144 1622     		mov	r2, #22
 386 0146 0A43     		orr	r2, r1
 387 0148 1A70     		strb	r2, [r3]
 388              	.LBE3:
 687:.\Generated_Source\PSoC4/cyfitter_cfg.c **** 	}
 688:.\Generated_Source\PSoC4/cyfitter_cfg.c **** 
 689:.\Generated_Source\PSoC4/cyfitter_cfg.c **** 	/* Perform second pass device configuration. These items must be configured in specific order afte
 690:.\Generated_Source\PSoC4/cyfitter_cfg.c **** 	/* IOPINS0_0 Starting address: CYDEV_PRT0_BASE */
 691:.\Generated_Source\PSoC4/cyfitter_cfg.c **** 	CY_SET_XTND_REG32((void CYFAR *)(CYDEV_PRT0_BASE), 0x00000020u);
 389              		.loc 1 691 0
 390 014a 2022     		mov	r2, #32
 391 014c 154B     		ldr	r3, .L16+60
 392 014e 1A60     		str	r2, [r3]
 692:.\Generated_Source\PSoC4/cyfitter_cfg.c **** 	CY_SET_XTND_REG32((void CYFAR *)(CYREG_PRT0_PC), 0x00031000u);
 393              		.loc 1 692 0
 394 0150 C422     		mov	r2, #196
 395 0152 9202     		lsl	r2, r2, #10
 396 0154 144B     		ldr	r3, .L16+64
 397 0156 1A60     		str	r2, [r3]
 693:.\Generated_Source\PSoC4/cyfitter_cfg.c **** 
 694:.\Generated_Source\PSoC4/cyfitter_cfg.c **** 	/* IOPINS0_3 Starting address: CYDEV_PRT3_BASE */
 695:.\Generated_Source\PSoC4/cyfitter_cfg.c **** 	CY_SET_XTND_REG32((void CYFAR *)(CYREG_PRT3_PC), 0x00000D80u);
 398              		.loc 1 695 0
 399 0158 D822     		mov	r2, #216
 400 015a 1201     		lsl	r2, r2, #4
 401 015c 134B     		ldr	r3, .L16+68
 402 015e 1A60     		str	r2, [r3]
 696:.\Generated_Source\PSoC4/cyfitter_cfg.c **** 
 697:.\Generated_Source\PSoC4/cyfitter_cfg.c **** 	/* Setup clocks based on selections from Clock DWR */
 698:.\Generated_Source\PSoC4/cyfitter_cfg.c **** 	ClockSetup();
 403              		.loc 1 698 0
 404 0160 FFF74EFF 		bl	ClockSetup
 405              	.LVL33:
 699:.\Generated_Source\PSoC4/cyfitter_cfg.c **** 
 700:.\Generated_Source\PSoC4/cyfitter_cfg.c **** 	/* Perform basic analog initialization to defaults */
 701:.\Generated_Source\PSoC4/cyfitter_cfg.c **** 	AnalogSetDefault();
 702:.\Generated_Source\PSoC4/cyfitter_cfg.c **** 
 703:.\Generated_Source\PSoC4/cyfitter_cfg.c **** }
 406              		.loc 1 703 0
 407              		@ sp needed
 408              	.LVL34:
 409 0164 38BD     		pop	{r3, r4, r5, pc}
 410              	.L17:
 411 0166 C046     		.align	2
 412              	.L16:
 413 0168 1C700F40 		.word	1074753564
 414 016c 00000000 		.word	.LANCHOR0
 415 0170 00600F40 		.word	1074749440
 416 0174 02600F40 		.word	1074749442
 417 0178 00000140 		.word	1073807360
 418 017c 0C000140 		.word	1073807372
 419 0180 04009900 		.word	10027012
 420 0184 00500F40 		.word	1074745344
 421 0188 04500F40 		.word	1074745348
 422 018c 08500F40 		.word	1074745352
 423 0190 30500F40 		.word	1074745392
 424 0194 20000040 		.word	1073741856
ARM GAS  C:\Users\Gary\AppData\Local\Temp\ccL8fc7d.s 			page 21


 425 0198 00800F40 		.word	1074757632
 426 019c 00700F40 		.word	1074753536
 427 01a0 01700F40 		.word	1074753537
 428 01a4 00000440 		.word	1074003968
 429 01a8 08000440 		.word	1074003976
 430 01ac 08030440 		.word	1074004744
 431              		.cfi_endproc
 432              	.LFE6:
 433              		.size	cyfitter_cfg, .-cyfitter_cfg
 434              		.section	.rodata
 435              		.align	2
 436              		.set	.LANCHOR0,. + 0
 437              		.type	cfg_memset_list.4742, %object
 438              		.size	cfg_memset_list.4742, 12
 439              	cfg_memset_list.4742:
 440 0000 80300F40 		.word	1074737280
 441 0004 8003     		.short	896
 442 0006 00400F40 		.4byte	1074741248
 443 000a 0004     		.short	1024
 444              		.type	cfg_memcpy_list.4744, %object
 445              		.size	cfg_memcpy_list.4744, 10
 446              	cfg_memcpy_list.4744:
 447 000c 00300F40 		.word	1074737152
 448 0010 C0020000 		.word	BS_UDB_0_1_0_CONFIG_VAL.4743
 449 0014 8000     		.short	128
 450 0016 0000     		.space	2
 451              		.type	cy_cfg_addr_table.4731, %object
 452              		.size	cy_cfg_addr_table.4731, 32
 453              	cy_cfg_addr_table.4731:
 454 0018 04000F40 		.word	1074724868
 455 001c 2A300F40 		.word	1074737194
 456 0020 41310F40 		.word	1074737473
 457 0024 6F320F40 		.word	1074737775
 458 0028 53330F40 		.word	1074738003
 459 002c 0B400F40 		.word	1074741259
 460 0030 05410F40 		.word	1074741509
 461 0034 02600F40 		.word	1074749442
 462              		.type	cy_cfg_data_table.4732, %object
 463              		.size	cy_cfg_data_table.4732, 646
 464              	cy_cfg_data_table.4732:
 465 0038 80       		.byte	-128
 466 0039 72       		.byte	114
 467 003a 81       		.byte	-127
 468 003b 0D       		.byte	13
 469 003c 82       		.byte	-126
 470 003d 38       		.byte	56
 471 003e 83       		.byte	-125
 472 003f 0F       		.byte	15
 473 0040 82       		.byte	-126
 474 0041 01       		.byte	1
 475 0042 85       		.byte	-123
 476 0043 01       		.byte	1
 477 0044 86       		.byte	-122
 478 0045 02       		.byte	2
 479 0046 8E       		.byte	-114
 480 0047 04       		.byte	4
 481 0048 96       		.byte	-106
ARM GAS  C:\Users\Gary\AppData\Local\Temp\ccL8fc7d.s 			page 22


 482 0049 08       		.byte	8
 483 004a 9E       		.byte	-98
 484 004b 02       		.byte	2
 485 004c A6       		.byte	-90
 486 004d 01       		.byte	1
 487 004e AA       		.byte	-86
 488 004f 04       		.byte	4
 489 0050 B0       		.byte	-80
 490 0051 01       		.byte	1
 491 0052 B1       		.byte	-79
 492 0053 01       		.byte	1
 493 0054 B2       		.byte	-78
 494 0055 04       		.byte	4
 495 0056 B4       		.byte	-76
 496 0057 02       		.byte	2
 497 0058 B6       		.byte	-74
 498 0059 08       		.byte	8
 499 005a BE       		.byte	-66
 500 005b 15       		.byte	21
 501 005c BF       		.byte	-65
 502 005d 01       		.byte	1
 503 005e C0       		.byte	-64
 504 005f 46       		.byte	70
 505 0060 C5       		.byte	-59
 506 0061 EC       		.byte	-20
 507 0062 C6       		.byte	-58
 508 0063 20       		.byte	32
 509 0064 C8       		.byte	-56
 510 0065 0B       		.byte	11
 511 0066 C9       		.byte	-55
 512 0067 FF       		.byte	-1
 513 0068 CA       		.byte	-54
 514 0069 FF       		.byte	-1
 515 006a CB       		.byte	-53
 516 006b FF       		.byte	-1
 517 006c CF       		.byte	-49
 518 006d 01       		.byte	1
 519 006e D0       		.byte	-48
 520 006f 18       		.byte	24
 521 0070 D2       		.byte	-46
 522 0071 80       		.byte	-128
 523 0072 D4       		.byte	-44
 524 0073 01       		.byte	1
 525 0074 D6       		.byte	-42
 526 0075 04       		.byte	4
 527 0076 D8       		.byte	-40
 528 0077 04       		.byte	4
 529 0078 D9       		.byte	-39
 530 0079 04       		.byte	4
 531 007a DA       		.byte	-38
 532 007b 04       		.byte	4
 533 007c DB       		.byte	-37
 534 007d 04       		.byte	4
 535 007e DD       		.byte	-35
 536 007f 99       		.byte	-103
 537 0080 DF       		.byte	-33
 538 0081 01       		.byte	1
ARM GAS  C:\Users\Gary\AppData\Local\Temp\ccL8fc7d.s 			page 23


 539 0082 E0       		.byte	-32
 540 0083 40       		.byte	64
 541 0084 E2       		.byte	-30
 542 0085 40       		.byte	64
 543 0086 E4       		.byte	-28
 544 0087 40       		.byte	64
 545 0088 E5       		.byte	-27
 546 0089 40       		.byte	64
 547 008a E6       		.byte	-26
 548 008b 80       		.byte	-128
 549 008c E8       		.byte	-24
 550 008d 80       		.byte	-128
 551 008e EA       		.byte	-22
 552 008f 80       		.byte	-128
 553 0090 EC       		.byte	-20
 554 0091 80       		.byte	-128
 555 0092 EE       		.byte	-18
 556 0093 80       		.byte	-128
 557 0094 00       		.byte	0
 558 0095 02       		.byte	2
 559 0096 03       		.byte	3
 560 0097 28       		.byte	40
 561 0098 05       		.byte	5
 562 0099 04       		.byte	4
 563 009a 06       		.byte	6
 564 009b 40       		.byte	64
 565 009c 07       		.byte	7
 566 009d 02       		.byte	2
 567 009e 08       		.byte	8
 568 009f 80       		.byte	-128
 569 00a0 09       		.byte	9
 570 00a1 20       		.byte	32
 571 00a2 0A       		.byte	10
 572 00a3 E0       		.byte	-32
 573 00a4 0E       		.byte	14
 574 00a5 21       		.byte	33
 575 00a6 10       		.byte	16
 576 00a7 A0       		.byte	-96
 577 00a8 12       		.byte	18
 578 00a9 04       		.byte	4
 579 00aa 13       		.byte	19
 580 00ab A0       		.byte	-96
 581 00ac 15       		.byte	21
 582 00ad 20       		.byte	32
 583 00ae 16       		.byte	22
 584 00af 20       		.byte	32
 585 00b0 19       		.byte	25
 586 00b1 A2       		.byte	-94
 587 00b2 1A       		.byte	26
 588 00b3 01       		.byte	1
 589 00b4 1B       		.byte	27
 590 00b5 08       		.byte	8
 591 00b6 1D       		.byte	29
 592 00b7 40       		.byte	64
 593 00b8 1E       		.byte	30
 594 00b9 98       		.byte	-104
 595 00ba 20       		.byte	32
ARM GAS  C:\Users\Gary\AppData\Local\Temp\ccL8fc7d.s 			page 24


 596 00bb 40       		.byte	64
 597 00bc 21       		.byte	33
 598 00bd 20       		.byte	32
 599 00be 22       		.byte	34
 600 00bf 04       		.byte	4
 601 00c0 23       		.byte	35
 602 00c1 82       		.byte	-126
 603 00c2 27       		.byte	39
 604 00c3 40       		.byte	64
 605 00c4 29       		.byte	41
 606 00c5 60       		.byte	96
 607 00c6 2A       		.byte	42
 608 00c7 04       		.byte	4
 609 00c8 31       		.byte	49
 610 00c9 20       		.byte	32
 611 00ca 32       		.byte	50
 612 00cb 40       		.byte	64
 613 00cc 33       		.byte	51
 614 00cd 08       		.byte	8
 615 00ce 38       		.byte	56
 616 00cf 60       		.byte	96
 617 00d0 3A       		.byte	58
 618 00d1 02       		.byte	2
 619 00d2 3B       		.byte	59
 620 00d3 08       		.byte	8
 621 00d4 3C       		.byte	60
 622 00d5 04       		.byte	4
 623 00d6 40       		.byte	64
 624 00d7 01       		.byte	1
 625 00d8 41       		.byte	65
 626 00d9 21       		.byte	33
 627 00da 42       		.byte	66
 628 00db 40       		.byte	64
 629 00dc 46       		.byte	70
 630 00dd 40       		.byte	64
 631 00de 49       		.byte	73
 632 00df A4       		.byte	-92
 633 00e0 4F       		.byte	79
 634 00e1 25       		.byte	37
 635 00e2 51       		.byte	81
 636 00e3 10       		.byte	16
 637 00e4 56       		.byte	86
 638 00e5 20       		.byte	32
 639 00e6 57       		.byte	87
 640 00e7 10       		.byte	16
 641 00e8 59       		.byte	89
 642 00e9 10       		.byte	16
 643 00ea 5A       		.byte	90
 644 00eb 18       		.byte	24
 645 00ec 5E       		.byte	94
 646 00ed 80       		.byte	-128
 647 00ee 5F       		.byte	95
 648 00ef 05       		.byte	5
 649 00f0 67       		.byte	103
 650 00f1 40       		.byte	64
 651 00f2 69       		.byte	105
 652 00f3 14       		.byte	20
ARM GAS  C:\Users\Gary\AppData\Local\Temp\ccL8fc7d.s 			page 25


 653 00f4 6B       		.byte	107
 654 00f5 01       		.byte	1
 655 00f6 70       		.byte	112
 656 00f7 B0       		.byte	-80
 657 00f8 72       		.byte	114
 658 00f9 02       		.byte	2
 659 00fa 73       		.byte	115
 660 00fb 20       		.byte	32
 661 00fc 76       		.byte	118
 662 00fd 40       		.byte	64
 663 00fe 83       		.byte	-125
 664 00ff 40       		.byte	64
 665 0100 87       		.byte	-121
 666 0101 40       		.byte	64
 667 0102 C0       		.byte	-64
 668 0103 BE       		.byte	-66
 669 0104 C2       		.byte	-62
 670 0105 AF       		.byte	-81
 671 0106 C4       		.byte	-60
 672 0107 6F       		.byte	111
 673 0108 CA       		.byte	-54
 674 0109 0E       		.byte	14
 675 010a CC       		.byte	-52
 676 010b 0E       		.byte	14
 677 010c CE       		.byte	-50
 678 010d 4F       		.byte	79
 679 010e D0       		.byte	-48
 680 010f 8D       		.byte	-115
 681 0110 D2       		.byte	-46
 682 0111 2C       		.byte	44
 683 0112 D6       		.byte	-42
 684 0113 D2       		.byte	-46
 685 0114 D8       		.byte	-40
 686 0115 80       		.byte	-128
 687 0116 01       		.byte	1
 688 0117 80       		.byte	-128
 689 0118 03       		.byte	3
 690 0119 13       		.byte	19
 691 011a 06       		.byte	6
 692 011b 03       		.byte	3
 693 011c 08       		.byte	8
 694 011d DC       		.byte	-36
 695 011e 0A       		.byte	10
 696 011f 22       		.byte	34
 697 0120 0B       		.byte	11
 698 0121 08       		.byte	8
 699 0122 0C       		.byte	12
 700 0123 10       		.byte	16
 701 0124 0E       		.byte	14
 702 0125 AC       		.byte	-84
 703 0126 13       		.byte	19
 704 0127 0C       		.byte	12
 705 0128 14       		.byte	20
 706 0129 0C       		.byte	12
 707 012a 15       		.byte	21
 708 012b 2C       		.byte	44
 709 012c 16       		.byte	22
ARM GAS  C:\Users\Gary\AppData\Local\Temp\ccL8fc7d.s 			page 26


 710 012d 71       		.byte	113
 711 012e 17       		.byte	23
 712 012f 43       		.byte	67
 713 0130 1E       		.byte	30
 714 0131 20       		.byte	32
 715 0132 20       		.byte	32
 716 0133 09       		.byte	9
 717 0134 22       		.byte	34
 718 0135 D0       		.byte	-48
 719 0136 24       		.byte	36
 720 0137 10       		.byte	16
 721 0138 26       		.byte	38
 722 0139 40       		.byte	64
 723 013a 28       		.byte	40
 724 013b 14       		.byte	20
 725 013c 29       		.byte	41
 726 013d 71       		.byte	113
 727 013e 2B       		.byte	43
 728 013f 0E       		.byte	14
 729 0140 2D       		.byte	45
 730 0141 71       		.byte	113
 731 0142 2F       		.byte	47
 732 0143 06       		.byte	6
 733 0144 32       		.byte	50
 734 0145 E0       		.byte	-32
 735 0146 33       		.byte	51
 736 0147 30       		.byte	48
 737 0148 34       		.byte	52
 738 0149 1F       		.byte	31
 739 014a 35       		.byte	53
 740 014b 0F       		.byte	15
 741 014c 37       		.byte	55
 742 014d C0       		.byte	-64
 743 014e 39       		.byte	57
 744 014f 88       		.byte	-120
 745 0150 3A       		.byte	58
 746 0151 08       		.byte	8
 747 0152 3B       		.byte	59
 748 0153 20       		.byte	32
 749 0154 3F       		.byte	63
 750 0155 04       		.byte	4
 751 0156 40       		.byte	64
 752 0157 02       		.byte	2
 753 0158 46       		.byte	70
 754 0159 40       		.byte	64
 755 015a 49       		.byte	73
 756 015b FF       		.byte	-1
 757 015c 4A       		.byte	74
 758 015d 07       		.byte	7
 759 015e 4B       		.byte	75
 760 015f FF       		.byte	-1
 761 0160 4C       		.byte	76
 762 0161 40       		.byte	64
 763 0162 4D       		.byte	77
 764 0163 20       		.byte	32
 765 0164 4E       		.byte	78
 766 0165 F0       		.byte	-16
ARM GAS  C:\Users\Gary\AppData\Local\Temp\ccL8fc7d.s 			page 27


 767 0166 4F       		.byte	79
 768 0167 05       		.byte	5
 769 0168 50       		.byte	80
 770 0169 08       		.byte	8
 771 016a 54       		.byte	84
 772 016b 18       		.byte	24
 773 016c 56       		.byte	86
 774 016d 04       		.byte	4
 775 016e 58       		.byte	88
 776 016f 04       		.byte	4
 777 0170 59       		.byte	89
 778 0171 04       		.byte	4
 779 0172 5A       		.byte	90
 780 0173 04       		.byte	4
 781 0174 5B       		.byte	91
 782 0175 04       		.byte	4
 783 0176 5F       		.byte	95
 784 0177 01       		.byte	1
 785 0178 60       		.byte	96
 786 0179 40       		.byte	64
 787 017a 61       		.byte	97
 788 017b A8       		.byte	-88
 789 017c 62       		.byte	98
 790 017d 40       		.byte	64
 791 017e 63       		.byte	99
 792 017f 20       		.byte	32
 793 0180 82       		.byte	-126
 794 0181 08       		.byte	8
 795 0182 84       		.byte	-124
 796 0183 0A       		.byte	10
 797 0184 85       		.byte	-123
 798 0185 01       		.byte	1
 799 0186 86       		.byte	-122
 800 0187 14       		.byte	20
 801 0188 87       		.byte	-121
 802 0189 0A       		.byte	10
 803 018a 88       		.byte	-120
 804 018b 20       		.byte	32
 805 018c 89       		.byte	-119
 806 018d 13       		.byte	19
 807 018e 8A       		.byte	-118
 808 018f C0       		.byte	-64
 809 0190 8E       		.byte	-114
 810 0191 15       		.byte	21
 811 0192 90       		.byte	-112
 812 0193 13       		.byte	19
 813 0194 91       		.byte	-111
 814 0195 10       		.byte	16
 815 0196 92       		.byte	-110
 816 0197 0C       		.byte	12
 817 0198 94       		.byte	-108
 818 0199 80       		.byte	-128
 819 019a 95       		.byte	-107
 820 019b 20       		.byte	32
 821 019c 96       		.byte	-106
 822 019d 20       		.byte	32
 823 019e 98       		.byte	-104
ARM GAS  C:\Users\Gary\AppData\Local\Temp\ccL8fc7d.s 			page 28


 824 019f 40       		.byte	64
 825 01a0 99       		.byte	-103
 826 01a1 02       		.byte	2
 827 01a2 9A       		.byte	-102
 828 01a3 20       		.byte	32
 829 01a4 9B       		.byte	-101
 830 01a5 09       		.byte	9
 831 01a6 9C       		.byte	-100
 832 01a7 13       		.byte	19
 833 01a8 9E       		.byte	-98
 834 01a9 04       		.byte	4
 835 01aa A0       		.byte	-96
 836 01ab 03       		.byte	3
 837 01ac A2       		.byte	-94
 838 01ad 14       		.byte	20
 839 01ae A4       		.byte	-92
 840 01af E0       		.byte	-32
 841 01b0 A5       		.byte	-91
 842 01b1 13       		.byte	19
 843 01b2 A8       		.byte	-88
 844 01b3 E0       		.byte	-32
 845 01b4 AB       		.byte	-85
 846 01b5 04       		.byte	4
 847 01b6 B0       		.byte	-80
 848 01b7 0F       		.byte	15
 849 01b8 B1       		.byte	-79
 850 01b9 10       		.byte	16
 851 01ba B3       		.byte	-77
 852 01bb 20       		.byte	32
 853 01bc B4       		.byte	-76
 854 01bd E0       		.byte	-32
 855 01be B5       		.byte	-75
 856 01bf 03       		.byte	3
 857 01c0 B6       		.byte	-74
 858 01c1 10       		.byte	16
 859 01c2 B7       		.byte	-73
 860 01c3 0C       		.byte	12
 861 01c4 BA       		.byte	-70
 862 01c5 02       		.byte	2
 863 01c6 BE       		.byte	-66
 864 01c7 40       		.byte	64
 865 01c8 BF       		.byte	-65
 866 01c9 44       		.byte	68
 867 01ca C0       		.byte	-64
 868 01cb 54       		.byte	84
 869 01cc C1       		.byte	-63
 870 01cd 03       		.byte	3
 871 01ce C5       		.byte	-59
 872 01cf 0E       		.byte	14
 873 01d0 C6       		.byte	-58
 874 01d1 0C       		.byte	12
 875 01d2 C7       		.byte	-57
 876 01d3 0B       		.byte	11
 877 01d4 C8       		.byte	-56
 878 01d5 15       		.byte	21
 879 01d6 C9       		.byte	-55
 880 01d7 FF       		.byte	-1
ARM GAS  C:\Users\Gary\AppData\Local\Temp\ccL8fc7d.s 			page 29


 881 01d8 CA       		.byte	-54
 882 01d9 FF       		.byte	-1
 883 01da CB       		.byte	-53
 884 01db FF       		.byte	-1
 885 01dc CE       		.byte	-50
 886 01dd F0       		.byte	-16
 887 01de CF       		.byte	-49
 888 01df 44       		.byte	68
 889 01e0 D0       		.byte	-48
 890 01e1 0C       		.byte	12
 891 01e2 D4       		.byte	-44
 892 01e3 01       		.byte	1
 893 01e4 D8       		.byte	-40
 894 01e5 04       		.byte	4
 895 01e6 D9       		.byte	-39
 896 01e7 04       		.byte	4
 897 01e8 DA       		.byte	-38
 898 01e9 04       		.byte	4
 899 01ea DB       		.byte	-37
 900 01eb 04       		.byte	4
 901 01ec DF       		.byte	-33
 902 01ed 01       		.byte	1
 903 01ee E6       		.byte	-26
 904 01ef C0       		.byte	-64
 905 01f0 EA       		.byte	-22
 906 01f1 40       		.byte	64
 907 01f2 EB       		.byte	-21
 908 01f3 02       		.byte	2
 909 01f4 01       		.byte	1
 910 01f5 20       		.byte	32
 911 01f6 02       		.byte	2
 912 01f7 A0       		.byte	-96
 913 01f8 03       		.byte	3
 914 01f9 02       		.byte	2
 915 01fa 04       		.byte	4
 916 01fb 04       		.byte	4
 917 01fc 05       		.byte	5
 918 01fd 80       		.byte	-128
 919 01fe 07       		.byte	7
 920 01ff 08       		.byte	8
 921 0200 0A       		.byte	10
 922 0201 62       		.byte	98
 923 0202 0B       		.byte	11
 924 0203 08       		.byte	8
 925 0204 0D       		.byte	13
 926 0205 08       		.byte	8
 927 0206 0F       		.byte	15
 928 0207 02       		.byte	2
 929 0208 10       		.byte	16
 930 0209 10       		.byte	16
 931 020a 11       		.byte	17
 932 020b 14       		.byte	20
 933 020c 12       		.byte	18
 934 020d 40       		.byte	64
 935 020e 16       		.byte	22
 936 020f 14       		.byte	20
 937 0210 17       		.byte	23
ARM GAS  C:\Users\Gary\AppData\Local\Temp\ccL8fc7d.s 			page 30


 938 0211 02       		.byte	2
 939 0212 19       		.byte	25
 940 0213 60       		.byte	96
 941 0214 1A       		.byte	26
 942 0215 40       		.byte	64
 943 0216 1B       		.byte	27
 944 0217 20       		.byte	32
 945 0218 1C       		.byte	28
 946 0219 04       		.byte	4
 947 021a 1D       		.byte	29
 948 021b 08       		.byte	8
 949 021c 1F       		.byte	31
 950 021d 08       		.byte	8
 951 021e 20       		.byte	32
 952 021f 01       		.byte	1
 953 0220 21       		.byte	33
 954 0221 01       		.byte	1
 955 0222 22       		.byte	34
 956 0223 14       		.byte	20
 957 0224 26       		.byte	38
 958 0225 A0       		.byte	-96
 959 0226 27       		.byte	39
 960 0227 2A       		.byte	42
 961 0228 28       		.byte	40
 962 0229 10       		.byte	16
 963 022a 29       		.byte	41
 964 022b 20       		.byte	32
 965 022c 2D       		.byte	45
 966 022d 80       		.byte	-128
 967 022e 2E       		.byte	46
 968 022f 40       		.byte	64
 969 0230 2F       		.byte	47
 970 0231 08       		.byte	8
 971 0232 31       		.byte	49
 972 0233 04       		.byte	4
 973 0234 32       		.byte	50
 974 0235 10       		.byte	16
 975 0236 33       		.byte	51
 976 0237 01       		.byte	1
 977 0238 37       		.byte	55
 978 0239 0A       		.byte	10
 979 023a 39       		.byte	57
 980 023b 10       		.byte	16
 981 023c 3B       		.byte	59
 982 023d 08       		.byte	8
 983 023e 3C       		.byte	60
 984 023f 20       		.byte	32
 985 0240 3F       		.byte	63
 986 0241 02       		.byte	2
 987 0242 43       		.byte	67
 988 0243 0A       		.byte	10
 989 0244 47       		.byte	71
 990 0245 20       		.byte	32
 991 0246 49       		.byte	73
 992 0247 84       		.byte	-124
 993 0248 51       		.byte	81
 994 0249 40       		.byte	64
ARM GAS  C:\Users\Gary\AppData\Local\Temp\ccL8fc7d.s 			page 31


 995 024a 52       		.byte	82
 996 024b 44       		.byte	68
 997 024c 54       		.byte	84
 998 024d 10       		.byte	16
 999 024e 56       		.byte	86
 1000 024f 10       		.byte	16
 1001 0250 57       		.byte	87
 1002 0251 03       		.byte	3
 1003 0252 58       		.byte	88
 1004 0253 02       		.byte	2
 1005 0254 59       		.byte	89
 1006 0255 40       		.byte	64
 1007 0256 5A       		.byte	90
 1008 0257 18       		.byte	24
 1009 0258 5D       		.byte	93
 1010 0259 02       		.byte	2
 1011 025a 65       		.byte	101
 1012 025b 10       		.byte	16
 1013 025c 67       		.byte	103
 1014 025d 82       		.byte	-126
 1015 025e 87       		.byte	-121
 1016 025f 40       		.byte	64
 1017 0260 8A       		.byte	-118
 1018 0261 01       		.byte	1
 1019 0262 8B       		.byte	-117
 1020 0263 08       		.byte	8
 1021 0264 8C       		.byte	-116
 1022 0265 02       		.byte	2
 1023 0266 8D       		.byte	-115
 1024 0267 44       		.byte	68
 1025 0268 8E       		.byte	-114
 1026 0269 10       		.byte	16
 1027 026a 91       		.byte	-111
 1028 026b 14       		.byte	20
 1029 026c 93       		.byte	-109
 1030 026d 0A       		.byte	10
 1031 026e 94       		.byte	-108
 1032 026f 05       		.byte	5
 1033 0270 95       		.byte	-107
 1034 0271 02       		.byte	2
 1035 0272 96       		.byte	-106
 1036 0273 20       		.byte	32
 1037 0274 99       		.byte	-103
 1038 0275 12       		.byte	18
 1039 0276 9B       		.byte	-101
 1040 0277 01       		.byte	1
 1041 0278 A7       		.byte	-89
 1042 0279 20       		.byte	32
 1043 027a AC       		.byte	-84
 1044 027b 81       		.byte	-127
 1045 027c AD       		.byte	-83
 1046 027d 20       		.byte	32
 1047 027e AE       		.byte	-82
 1048 027f 10       		.byte	16
 1049 0280 AF       		.byte	-81
 1050 0281 04       		.byte	4
 1051 0282 B6       		.byte	-74
ARM GAS  C:\Users\Gary\AppData\Local\Temp\ccL8fc7d.s 			page 32


 1052 0283 04       		.byte	4
 1053 0284 B7       		.byte	-73
 1054 0285 01       		.byte	1
 1055 0286 C0       		.byte	-64
 1056 0287 EF       		.byte	-17
 1057 0288 C2       		.byte	-62
 1058 0289 AF       		.byte	-81
 1059 028a C4       		.byte	-60
 1060 028b 7E       		.byte	126
 1061 028c CA       		.byte	-54
 1062 028d 36       		.byte	54
 1063 028e CC       		.byte	-52
 1064 028f C7       		.byte	-57
 1065 0290 CE       		.byte	-50
 1066 0291 A6       		.byte	-90
 1067 0292 D0       		.byte	-48
 1068 0293 23       		.byte	35
 1069 0294 D2       		.byte	-46
 1070 0295 08       		.byte	8
 1071 0296 D6       		.byte	-42
 1072 0297 8F       		.byte	-113
 1073 0298 D8       		.byte	-40
 1074 0299 B0       		.byte	-80
 1075 029a 08       		.byte	8
 1076 029b 08       		.byte	8
 1077 029c 63       		.byte	99
 1078 029d 20       		.byte	32
 1079 029e 6F       		.byte	111
 1080 029f 02       		.byte	2
 1081 02a0 73       		.byte	115
 1082 02a1 02       		.byte	2
 1083 02a2 83       		.byte	-125
 1084 02a3 10       		.byte	16
 1085 02a4 87       		.byte	-121
 1086 02a5 02       		.byte	2
 1087 02a6 C2       		.byte	-62
 1088 02a7 10       		.byte	16
 1089 02a8 D8       		.byte	-40
 1090 02a9 40       		.byte	64
 1091 02aa DA       		.byte	-38
 1092 02ab 80       		.byte	-128
 1093 02ac DC       		.byte	-36
 1094 02ad 20       		.byte	32
 1095 02ae E6       		.byte	-26
 1096 02af C0       		.byte	-64
 1097 02b0 87       		.byte	-121
 1098 02b1 02       		.byte	2
 1099 02b2 A7       		.byte	-89
 1100 02b3 02       		.byte	2
 1101 02b4 AC       		.byte	-84
 1102 02b5 08       		.byte	8
 1103 02b6 E2       		.byte	-30
 1104 02b7 10       		.byte	16
 1105 02b8 EC       		.byte	-20
 1106 02b9 10       		.byte	16
 1107 02ba 10       		.byte	16
 1108 02bb 01       		.byte	1
ARM GAS  C:\Users\Gary\AppData\Local\Temp\ccL8fc7d.s 			page 33


 1109 02bc 11       		.byte	17
 1110 02bd 01       		.byte	1
 1111 02be 0000     		.space	2
 1112              		.type	BS_UDB_0_1_0_CONFIG_VAL.4743, %object
 1113              		.size	BS_UDB_0_1_0_CONFIG_VAL.4743, 128
 1114              	BS_UDB_0_1_0_CONFIG_VAL.4743:
 1115 02c0 41       		.byte	65
 1116 02c1 10       		.byte	16
 1117 02c2 00       		.byte	0
 1118 02c3 00       		.byte	0
 1119 02c4 C3       		.byte	-61
 1120 02c5 04       		.byte	4
 1121 02c6 00       		.byte	0
 1122 02c7 00       		.byte	0
 1123 02c8 0F       		.byte	15
 1124 02c9 08       		.byte	8
 1125 02ca F0       		.byte	-16
 1126 02cb 00       		.byte	0
 1127 02cc 00       		.byte	0
 1128 02cd 3C       		.byte	60
 1129 02ce 00       		.byte	0
 1130 02cf 42       		.byte	66
 1131 02d0 00       		.byte	0
 1132 02d1 00       		.byte	0
 1133 02d2 F3       		.byte	-13
 1134 02d3 00       		.byte	0
 1135 02d4 82       		.byte	-126
 1136 02d5 3C       		.byte	60
 1137 02d6 00       		.byte	0
 1138 02d7 41       		.byte	65
 1139 02d8 FF       		.byte	-1
 1140 02d9 7F       		.byte	127
 1141 02da 00       		.byte	0
 1142 02db 00       		.byte	0
 1143 02dc F3       		.byte	-13
 1144 02dd 00       		.byte	0
 1145 02de 0C       		.byte	12
 1146 02df 03       		.byte	3
 1147 02e0 08       		.byte	8
 1148 02e1 00       		.byte	0
 1149 02e2 00       		.byte	0
 1150 02e3 00       		.byte	0
 1151 02e4 04       		.byte	4
 1152 02e5 18       		.byte	24
 1153 02e6 00       		.byte	0
 1154 02e7 00       		.byte	0
 1155 02e8 0C       		.byte	12
 1156 02e9 67       		.byte	103
 1157 02ea 00       		.byte	0
 1158 02eb 18       		.byte	24
 1159 02ec 1C       		.byte	28
 1160 02ed 00       		.byte	0
 1161 02ee E3       		.byte	-29
 1162 02ef 04       		.byte	4
 1163 02f0 C0       		.byte	-64
 1164 02f1 1F       		.byte	31
 1165 02f2 2C       		.byte	44
ARM GAS  C:\Users\Gary\AppData\Local\Temp\ccL8fc7d.s 			page 34


 1166 02f3 20       		.byte	32
 1167 02f4 0F       		.byte	15
 1168 02f5 00       		.byte	0
 1169 02f6 1C       		.byte	28
 1170 02f7 40       		.byte	64
 1171 02f8 00       		.byte	0
 1172 02f9 80       		.byte	-128
 1173 02fa 28       		.byte	40
 1174 02fb 22       		.byte	34
 1175 02fc 00       		.byte	0
 1176 02fd 00       		.byte	0
 1177 02fe 00       		.byte	0
 1178 02ff 04       		.byte	4
 1179 0300 64       		.byte	100
 1180 0301 02       		.byte	2
 1181 0302 05       		.byte	5
 1182 0303 00       		.byte	0
 1183 0304 01       		.byte	1
 1184 0305 0C       		.byte	12
 1185 0306 E0       		.byte	-32
 1186 0307 00       		.byte	0
 1187 0308 09       		.byte	9
 1188 0309 FF       		.byte	-1
 1189 030a FF       		.byte	-1
 1190 030b FF       		.byte	-1
 1191 030c 62       		.byte	98
 1192 030d A0       		.byte	-96
 1193 030e F0       		.byte	-16
 1194 030f 41       		.byte	65
 1195 0310 0C       		.byte	12
 1196 0311 00       		.byte	0
 1197 0312 00       		.byte	0
 1198 0313 00       		.byte	0
 1199 0314 00       		.byte	0
 1200 0315 00       		.byte	0
 1201 0316 02       		.byte	2
 1202 0317 12       		.byte	18
 1203 0318 04       		.byte	4
 1204 0319 04       		.byte	4
 1205 031a 04       		.byte	4
 1206 031b 04       		.byte	4
 1207 031c 00       		.byte	0
 1208 031d 00       		.byte	0
 1209 031e 00       		.byte	0
 1210 031f 01       		.byte	1
 1211 0320 00       		.byte	0
 1212 0321 00       		.byte	0
 1213 0322 00       		.byte	0
 1214 0323 00       		.byte	0
 1215 0324 00       		.byte	0
 1216 0325 00       		.byte	0
 1217 0326 40       		.byte	64
 1218 0327 02       		.byte	2
 1219 0328 00       		.byte	0
 1220 0329 10       		.byte	16
 1221 032a 30       		.byte	48
 1222 032b 10       		.byte	16
ARM GAS  C:\Users\Gary\AppData\Local\Temp\ccL8fc7d.s 			page 35


 1223 032c 00       		.byte	0
 1224 032d 10       		.byte	16
 1225 032e 10       		.byte	16
 1226 032f 12       		.byte	18
 1227 0330 00       		.byte	0
 1228 0331 00       		.byte	0
 1229 0332 00       		.byte	0
 1230 0333 00       		.byte	0
 1231 0334 00       		.byte	0
 1232 0335 00       		.byte	0
 1233 0336 00       		.byte	0
 1234 0337 00       		.byte	0
 1235 0338 00       		.byte	0
 1236 0339 00       		.byte	0
 1237 033a 00       		.byte	0
 1238 033b 00       		.byte	0
 1239 033c 00       		.byte	0
 1240 033d 00       		.byte	0
 1241 033e 00       		.byte	0
 1242 033f 00       		.byte	0
 1243              		.text
 1244              	.Letext0:
 1245              		.file 2 "c:\\program files (x86)\\cypress\\psoc creator\\3.3\\psoc creator\\import\\gnu\\arm\\4.9.
 1246              		.file 3 ".\\Generated_Source\\PSoC4\\cytypes.h"
 1247              		.file 4 ".\\Generated_Source\\PSoC4\\CyLib.h"