ARM GAS  C:\Users\Gary\AppData\Local\Temp\ccyeRBSs.s 			page 1


   1              		.cpu cortex-m0
   2              		.fpu softvfp
   3              		.eabi_attribute 20, 1
   4              		.eabi_attribute 21, 1
   5              		.eabi_attribute 23, 3
   6              		.eabi_attribute 24, 1
   7              		.eabi_attribute 25, 1
   8              		.eabi_attribute 26, 1
   9              		.eabi_attribute 30, 1
  10              		.eabi_attribute 34, 0
  11              		.eabi_attribute 18, 4
  12              		.code	16
  13              		.file	"main.c"
  14              		.text
  15              	.Ltext0:
  16              		.cfi_sections	.debug_frame
  17              		.section	.text.uartISR,"ax",%progbits
  18              		.align	2
  19              		.global	uartISR
  20              		.code	16
  21              		.thumb_func
  22              		.type	uartISR, %function
  23              	uartISR:
  24              	.LFB33:
  25              		.file 1 ".\\main.c"
   1:.\main.c      **** /* ========================================
   2:.\main.c      ****  *
   3:.\main.c      ****  * Copyright YOUR COMPANY, THE YEAR
   4:.\main.c      ****  * All Rights Reserved
   5:.\main.c      ****  * UNPUBLISHED, LICENSED SOFTWARE.
   6:.\main.c      ****  *
   7:.\main.c      ****  * CONFIDENTIAL AND PROPRIETARY INFORMATION
   8:.\main.c      ****  * WHICH IS THE PROPERTY OF your company.
   9:.\main.c      ****  *
  10:.\main.c      ****  * ========================================
  11:.\main.c      **** */
  12:.\main.c      **** #include <project.h>
  13:.\main.c      **** #include <stdlib.h>
  14:.\main.c      **** #include <stdio.h>
  15:.\main.c      **** 
  16:.\main.c      **** #define MATRIX_SIZE 5
  17:.\main.c      **** 
  18:.\main.c      **** int tc;
  19:.\main.c      **** uint8 preTime;
  20:.\main.c      **** float clockTime = (float)1/(float)24000000;
  21:.\main.c      **** float elapsedTime;
  22:.\main.c      **** 
  23:.\main.c      **** CY_ISR(uartISR) /* ISR to handle UART interrupts. */
  24:.\main.c      **** {
  26              		.loc 1 24 0
  27              		.cfi_startproc
  28 0000 08B5     		push	{r3, lr}
  29              		.cfi_def_cfa_offset 8
  30              		.cfi_offset 3, -8
  31              		.cfi_offset 14, -4
  25:.\main.c      ****     /* Your ISR code. */
  26:.\main.c      ****     
ARM GAS  C:\Users\Gary\AppData\Local\Temp\ccyeRBSs.s 			page 2


  27:.\main.c      ****     /* Clear the interrupt. */
  28:.\main.c      ****     UART_1_PutString("Hi there! \n\r");
  32              		.loc 1 28 0
  33 0002 0348     		ldr	r0, .L2
  34 0004 FFF7FEFF 		bl	UART_1_PutString
  35              	.LVL0:
  29:.\main.c      ****     //UART_1_ClearRxBuffer();
  30:.\main.c      ****     UART_1_ClearRxBuffer();
  36              		.loc 1 30 0
  37 0008 FFF7FEFF 		bl	UART_1_ClearRxBuffer
  38              	.LVL1:
  31:.\main.c      **** }
  39              		.loc 1 31 0
  40              		@ sp needed
  41 000c 08BD     		pop	{r3, pc}
  42              	.L3:
  43 000e C046     		.align	2
  44              	.L2:
  45 0010 00000000 		.word	.LC0
  46              		.cfi_endproc
  47              	.LFE33:
  48              		.size	uartISR, .-uartISR
  49              		.section	.text.myTimerISR,"ax",%progbits
  50              		.align	2
  51              		.global	myTimerISR
  52              		.code	16
  53              		.thumb_func
  54              		.type	myTimerISR, %function
  55              	myTimerISR:
  56              	.LFB34:
  32:.\main.c      **** 
  33:.\main.c      **** CY_ISR(myTimerISR) /* ISR to handle tc interrupts from timer. */
  34:.\main.c      **** {
  57              		.loc 1 34 0
  58              		.cfi_startproc
  59 0000 08B5     		push	{r3, lr}
  60              		.cfi_def_cfa_offset 8
  61              		.cfi_offset 3, -8
  62              		.cfi_offset 14, -4
  35:.\main.c      ****     //UART_1_PutString("Timer! \n\r");
  36:.\main.c      ****     tc++;
  63              		.loc 1 36 0
  64 0002 034A     		ldr	r2, .L5
  65 0004 1368     		ldr	r3, [r2]
  66 0006 0133     		add	r3, r3, #1
  67 0008 1360     		str	r3, [r2]
  37:.\main.c      ****     /* Your ISR code. */
  38:.\main.c      ****     
  39:.\main.c      ****     /* Reset the interrupt. */
  40:.\main.c      ****     //TIMER_1_ReadStatusRegister();
  41:.\main.c      ****     TIMER_1_ReadStatusRegister();
  68              		.loc 1 41 0
  69 000a FFF7FEFF 		bl	TIMER_1_ReadStatusRegister
  70              	.LVL2:
  42:.\main.c      **** }
  71              		.loc 1 42 0
  72              		@ sp needed
ARM GAS  C:\Users\Gary\AppData\Local\Temp\ccyeRBSs.s 			page 3


  73 000e 08BD     		pop	{r3, pc}
  74              	.L6:
  75              		.align	2
  76              	.L5:
  77 0010 00000000 		.word	tc
  78              		.cfi_endproc
  79              	.LFE34:
  80              		.size	myTimerISR, .-myTimerISR
  81              		.global	__aeabi_i2f
  82              		.section	.text.tic,"ax",%progbits
  83              		.align	2
  84              		.global	tic
  85              		.code	16
  86              		.thumb_func
  87              		.type	tic, %function
  88              	tic:
  89              	.LFB35:
  43:.\main.c      **** 
  44:.\main.c      **** void tic(void)
  45:.\main.c      **** {
  90              		.loc 1 45 0
  91              		.cfi_startproc
  92 0000 08B5     		push	{r3, lr}
  93              		.cfi_def_cfa_offset 8
  94              		.cfi_offset 3, -8
  95              		.cfi_offset 14, -4
  46:.\main.c      ****     preTime = TIMER_1_ReadCounter();
  96              		.loc 1 46 0
  97 0002 FFF7FEFF 		bl	TIMER_1_ReadCounter
  98              	.LVL3:
  99 0006 044B     		ldr	r3, .L8
 100 0008 1870     		strb	r0, [r3]
  47:.\main.c      ****     elapsedTime = tc;
 101              		.loc 1 47 0
 102 000a 044B     		ldr	r3, .L8+4
 103 000c 1868     		ldr	r0, [r3]
 104 000e FFF7FEFF 		bl	__aeabi_i2f
 105              	.LVL4:
 106 0012 034B     		ldr	r3, .L8+8
 107 0014 1860     		str	r0, [r3]
  48:.\main.c      ****     //UART_1_PutChar(TIMER_1_ReadCounter());
  49:.\main.c      **** }
 108              		.loc 1 49 0
 109              		@ sp needed
 110 0016 08BD     		pop	{r3, pc}
 111              	.L9:
 112              		.align	2
 113              	.L8:
 114 0018 00000000 		.word	preTime
 115 001c 00000000 		.word	tc
 116 0020 00000000 		.word	elapsedTime
 117              		.cfi_endproc
 118              	.LFE35:
 119              		.size	tic, .-tic
 120              		.global	__aeabi_fsub
 121              		.global	__aeabi_f2d
 122              		.global	__aeabi_dmul
ARM GAS  C:\Users\Gary\AppData\Local\Temp\ccyeRBSs.s 			page 4


 123              		.global	__aeabi_d2f
 124              		.global	__aeabi_fmul
 125              		.global	__aeabi_fadd
 126              		.section	.text.toc,"ax",%progbits
 127              		.align	2
 128              		.global	toc
 129              		.code	16
 130              		.thumb_func
 131              		.type	toc, %function
 132              	toc:
 133              	.LFB36:
  50:.\main.c      **** 
  51:.\main.c      **** void toc(void)
  52:.\main.c      **** {
 134              		.loc 1 52 0
 135              		.cfi_startproc
 136 0000 30B5     		push	{r4, r5, lr}
 137              		.cfi_def_cfa_offset 12
 138              		.cfi_offset 4, -12
 139              		.cfi_offset 5, -8
 140              		.cfi_offset 14, -4
 141 0002 83B0     		sub	sp, sp, #12
 142              		.cfi_def_cfa_offset 24
  53:.\main.c      ****     float temp0 = (tc - elapsedTime) * 0.00001;
 143              		.loc 1 53 0
 144 0004 184B     		ldr	r3, .L11
 145 0006 1868     		ldr	r0, [r3]
 146 0008 FFF7FEFF 		bl	__aeabi_i2f
 147              	.LVL5:
 148 000c 174B     		ldr	r3, .L11+4
 149 000e 1968     		ldr	r1, [r3]
 150 0010 FFF7FEFF 		bl	__aeabi_fsub
 151              	.LVL6:
 152 0014 FFF7FEFF 		bl	__aeabi_f2d
 153              	.LVL7:
 154 0018 154A     		ldr	r2, .L11+8
 155 001a 164B     		ldr	r3, .L11+12
 156 001c FFF7FEFF 		bl	__aeabi_dmul
 157              	.LVL8:
 158 0020 FFF7FEFF 		bl	__aeabi_d2f
 159              	.LVL9:
 160 0024 051C     		add	r5, r0, #0
 161              	.LVL10:
  54:.\main.c      ****     float temp1 = ((float)(preTime + 239 - TIMER_1_ReadCounter())) * clockTime;
 162              		.loc 1 54 0
 163 0026 144B     		ldr	r3, .L11+16
 164 0028 1C78     		ldrb	r4, [r3]
 165 002a EF34     		add	r4, r4, #239
 166 002c FFF7FEFF 		bl	TIMER_1_ReadCounter
 167              	.LVL11:
 168 0030 201A     		sub	r0, r4, r0
 169 0032 FFF7FEFF 		bl	__aeabi_i2f
 170              	.LVL12:
 171 0036 114B     		ldr	r3, .L11+20
 172 0038 1968     		ldr	r1, [r3]
 173 003a FFF7FEFF 		bl	__aeabi_fmul
 174              	.LVL13:
ARM GAS  C:\Users\Gary\AppData\Local\Temp\ccyeRBSs.s 			page 5


 175 003e 011C     		add	r1, r0, #0
 176              	.LVL14:
  55:.\main.c      ****     
  56:.\main.c      ****     temp0 = temp0 + temp1;
 177              		.loc 1 56 0
 178 0040 281C     		add	r0, r5, #0
 179              	.LVL15:
 180 0042 FFF7FEFF 		bl	__aeabi_fadd
 181              	.LVL16:
  57:.\main.c      ****     char str0[8];
  58:.\main.c      ****     //char str1[8];
  59:.\main.c      ****    
  60:.\main.c      ****     //UART_1_PutString("");
  61:.\main.c      ****     sprintf(str0,"%f",temp0);
 182              		.loc 1 61 0
 183 0046 FFF7FEFF 		bl	__aeabi_f2d
 184              	.LVL17:
 185 004a 021C     		mov	r2, r0
 186 004c 0B1C     		mov	r3, r1
 187 004e 6846     		mov	r0, sp
 188 0050 0B49     		ldr	r1, .L11+24
 189 0052 FFF7FEFF 		bl	sprintf
 190              	.LVL18:
  62:.\main.c      ****     UART_1_PutString(str0);
 191              		.loc 1 62 0
 192 0056 6846     		mov	r0, sp
 193 0058 FFF7FEFF 		bl	UART_1_PutString
 194              	.LVL19:
  63:.\main.c      ****     
  64:.\main.c      ****     /*
  65:.\main.c      ****     uint8 temp = 239 - TIMER_1_ReadCounter();
  66:.\main.c      ****     sprintf(str1,"%d",temp);
  67:.\main.c      ****     UART_1_PutString(str1);
  68:.\main.c      **** 
  69:.\main.c      ****     */
  70:.\main.c      ****     UART_1_PutString(" s \n\r");
 195              		.loc 1 70 0
 196 005c 0948     		ldr	r0, .L11+28
 197 005e FFF7FEFF 		bl	UART_1_PutString
 198              	.LVL20:
  71:.\main.c      **** }
 199              		.loc 1 71 0
 200 0062 03B0     		add	sp, sp, #12
 201              		@ sp needed
 202 0064 30BD     		pop	{r4, r5, pc}
 203              	.L12:
 204 0066 C046     		.align	2
 205              	.L11:
 206 0068 00000000 		.word	tc
 207 006c 00000000 		.word	elapsedTime
 208 0070 F168E388 		.word	-1998362383
 209 0074 B5F8E43E 		.word	1055193269
 210 0078 00000000 		.word	preTime
 211 007c 00000000 		.word	.LANCHOR0
 212 0080 10000000 		.word	.LC10
 213 0084 14000000 		.word	.LC12
 214              		.cfi_endproc
ARM GAS  C:\Users\Gary\AppData\Local\Temp\ccyeRBSs.s 			page 6


 215              	.LFE36:
 216              		.size	toc, .-toc
 217              		.section	.text.matrixMult,"ax",%progbits
 218              		.align	2
 219              		.global	matrixMult
 220              		.code	16
 221              		.thumb_func
 222              		.type	matrixMult, %function
 223              	matrixMult:
 224              	.LFB37:
  72:.\main.c      **** 
  73:.\main.c      **** void matrixMult(float A[MATRIX_SIZE][MATRIX_SIZE], float B[MATRIX_SIZE][MATRIX_SIZE], float C[MATRI
  74:.\main.c      **** {
 225              		.loc 1 74 0
 226              		.cfi_startproc
 227              	.LVL21:
 228 0000 F0B5     		push	{r4, r5, r6, r7, lr}
 229              		.cfi_def_cfa_offset 20
 230              		.cfi_offset 4, -20
 231              		.cfi_offset 5, -16
 232              		.cfi_offset 6, -12
 233              		.cfi_offset 7, -8
 234              		.cfi_offset 14, -4
 235 0002 5746     		mov	r7, r10
 236 0004 4E46     		mov	r6, r9
 237 0006 C0B4     		push	{r6, r7}
 238              		.cfi_def_cfa_offset 28
 239              		.cfi_offset 9, -28
 240              		.cfi_offset 10, -24
 241 0008 83B0     		sub	sp, sp, #12
 242              		.cfi_def_cfa_offset 40
 243 000a 8146     		mov	r9, r0
 244 000c 0E1C     		mov	r6, r1
 245 000e 9246     		mov	r10, r2
 246              	.LVL22:
  75:.\main.c      ****     int8 i, j, k;
  76:.\main.c      ****     float temp;
  77:.\main.c      ****     for(i = 0; i < MATRIX_SIZE; i++){
 247              		.loc 1 77 0
 248 0010 0023     		mov	r3, #0
 249 0012 0193     		str	r3, [sp, #4]
 250 0014 34E0     		b	.L14
 251              	.LVL23:
 252              	.L15:
  78:.\main.c      ****         for(j = 0; j < MATRIX_SIZE; j++){
  79:.\main.c      ****             temp = 0.0;
  80:.\main.c      ****             for(k = 0; k < MATRIX_SIZE; k++){
  81:.\main.c      ****                 temp += A[i][k] * B[k][j];
 253              		.loc 1 81 0 discriminator 3
 254 0016 6B46     		mov	r3, sp
 255 0018 1B79     		ldrb	r3, [r3, #4]
 256 001a 5BB2     		sxtb	r3, r3
 257 001c 9A00     		lsl	r2, r3, #2
 258 001e D318     		add	r3, r2, r3
 259 0020 9B00     		lsl	r3, r3, #2
 260 0022 4B44     		add	r3, r3, r9
 261 0024 1A1C     		mov	r2, r3
ARM GAS  C:\Users\Gary\AppData\Local\Temp\ccyeRBSs.s 			page 7


 262 0026 7BB2     		sxtb	r3, r7
 263 0028 9900     		lsl	r1, r3, #2
 264 002a 8858     		ldr	r0, [r1, r2]
 265 002c CB18     		add	r3, r1, r3
 266 002e 9B00     		lsl	r3, r3, #2
 267 0030 F318     		add	r3, r6, r3
 268 0032 6AB2     		sxtb	r2, r5
 269 0034 9200     		lsl	r2, r2, #2
 270 0036 D158     		ldr	r1, [r2, r3]
 271 0038 FFF7FEFF 		bl	__aeabi_fmul
 272              	.LVL24:
 273 003c 011C     		add	r1, r0, #0
 274 003e 201C     		add	r0, r4, #0
 275 0040 FFF7FEFF 		bl	__aeabi_fadd
 276              	.LVL25:
 277 0044 041C     		add	r4, r0, #0
 278              	.LVL26:
  80:.\main.c      ****                 temp += A[i][k] * B[k][j];
 279              		.loc 1 80 0 discriminator 3
 280 0046 0137     		add	r7, r7, #1
 281              	.LVL27:
 282 0048 FFB2     		uxtb	r7, r7
 283              	.LVL28:
 284 004a 01E0     		b	.L16
 285              	.LVL29:
 286              	.L18:
 287 004c 0024     		mov	r4, #0
 288 004e 0027     		mov	r7, #0
 289              	.L16:
 290              	.LVL30:
  80:.\main.c      ****                 temp += A[i][k] * B[k][j];
 291              		.loc 1 80 0 is_stmt 0 discriminator 1
 292 0050 7BB2     		sxtb	r3, r7
 293 0052 042B     		cmp	r3, #4
 294 0054 DFDD     		ble	.L15
  82:.\main.c      ****             }
  83:.\main.c      ****             C[i][j] = temp;
 295              		.loc 1 83 0 is_stmt 1 discriminator 2
 296 0056 6B46     		mov	r3, sp
 297 0058 1B79     		ldrb	r3, [r3, #4]
 298 005a 5BB2     		sxtb	r3, r3
 299 005c 9A00     		lsl	r2, r3, #2
 300 005e D318     		add	r3, r2, r3
 301 0060 9B00     		lsl	r3, r3, #2
 302 0062 5344     		add	r3, r3, r10
 303 0064 6AB2     		sxtb	r2, r5
 304 0066 9200     		lsl	r2, r2, #2
 305 0068 D450     		str	r4, [r2, r3]
  78:.\main.c      ****             temp = 0.0;
 306              		.loc 1 78 0 discriminator 2
 307 006a 0135     		add	r5, r5, #1
 308              	.LVL31:
 309 006c EDB2     		uxtb	r5, r5
 310              	.LVL32:
 311 006e 00E0     		b	.L17
 312              	.LVL33:
 313              	.L19:
ARM GAS  C:\Users\Gary\AppData\Local\Temp\ccyeRBSs.s 			page 8


 314 0070 0025     		mov	r5, #0
 315              	.L17:
 316              	.LVL34:
  78:.\main.c      ****             temp = 0.0;
 317              		.loc 1 78 0 is_stmt 0 discriminator 1
 318 0072 6BB2     		sxtb	r3, r5
 319 0074 042B     		cmp	r3, #4
 320 0076 E9DD     		ble	.L18
  77:.\main.c      ****         for(j = 0; j < MATRIX_SIZE; j++){
 321              		.loc 1 77 0 is_stmt 1 discriminator 2
 322 0078 019B     		ldr	r3, [sp, #4]
 323 007a 0133     		add	r3, r3, #1
 324 007c DBB2     		uxtb	r3, r3
 325 007e 0193     		str	r3, [sp, #4]
 326              	.LVL35:
 327              	.L14:
  77:.\main.c      ****         for(j = 0; j < MATRIX_SIZE; j++){
 328              		.loc 1 77 0 is_stmt 0 discriminator 1
 329 0080 6B46     		mov	r3, sp
 330 0082 1B79     		ldrb	r3, [r3, #4]
 331 0084 5BB2     		sxtb	r3, r3
 332 0086 042B     		cmp	r3, #4
 333 0088 F2DD     		ble	.L19
  84:.\main.c      ****         }
  85:.\main.c      ****     }
  86:.\main.c      **** }
 334              		.loc 1 86 0 is_stmt 1
 335 008a 03B0     		add	sp, sp, #12
 336              		@ sp needed
 337              	.LVL36:
 338              	.LVL37:
 339              	.LVL38:
 340 008c 0CBC     		pop	{r2, r3}
 341 008e 9146     		mov	r9, r2
 342 0090 9A46     		mov	r10, r3
 343 0092 F0BD     		pop	{r4, r5, r6, r7, pc}
 344              		.cfi_endproc
 345              	.LFE37:
 346              		.size	matrixMult, .-matrixMult
 347              		.section	.text.populateMatrix,"ax",%progbits
 348              		.align	2
 349              		.global	populateMatrix
 350              		.code	16
 351              		.thumb_func
 352              		.type	populateMatrix, %function
 353              	populateMatrix:
 354              	.LFB38:
  87:.\main.c      **** 
  88:.\main.c      **** void populateMatrix(float M[MATRIX_SIZE][MATRIX_SIZE])
  89:.\main.c      **** {
 355              		.loc 1 89 0
 356              		.cfi_startproc
 357              	.LVL39:
 358 0000 F0B5     		push	{r4, r5, r6, r7, lr}
 359              		.cfi_def_cfa_offset 20
 360              		.cfi_offset 4, -20
 361              		.cfi_offset 5, -16
ARM GAS  C:\Users\Gary\AppData\Local\Temp\ccyeRBSs.s 			page 9


 362              		.cfi_offset 6, -12
 363              		.cfi_offset 7, -8
 364              		.cfi_offset 14, -4
 365 0002 4746     		mov	r7, r8
 366 0004 80B4     		push	{r7}
 367              		.cfi_def_cfa_offset 24
 368              		.cfi_offset 8, -24
 369 0006 8046     		mov	r8, r0
 370              	.LVL40:
  90:.\main.c      ****     int8 i, j;
  91:.\main.c      ****     for(i = 0; i < MATRIX_SIZE; i++){
 371              		.loc 1 91 0
 372 0008 0025     		mov	r5, #0
 373 000a 19E0     		b	.L21
 374              	.LVL41:
 375              	.L22:
  92:.\main.c      ****         for(j = 0; j < MATRIX_SIZE; j++){
  93:.\main.c      ****             M[i][j] = (float)rand()/(float)RAND_MAX;
 376              		.loc 1 93 0 discriminator 3
 377 000c 6BB2     		sxtb	r3, r5
 378 000e 9A00     		lsl	r2, r3, #2
 379 0010 D318     		add	r3, r2, r3
 380 0012 9B00     		lsl	r3, r3, #2
 381 0014 4344     		add	r3, r3, r8
 382 0016 1C1C     		mov	r4, r3
 383 0018 77B2     		sxtb	r7, r6
 384 001a FFF7FEFF 		bl	rand
 385              	.LVL42:
 386 001e FFF7FEFF 		bl	__aeabi_i2f
 387              	.LVL43:
 388 0022 C021     		mov	r1, #192
 389 0024 8905     		lsl	r1, r1, #22
 390 0026 FFF7FEFF 		bl	__aeabi_fmul
 391              	.LVL44:
 392 002a BF00     		lsl	r7, r7, #2
 393 002c 3851     		str	r0, [r7, r4]
  92:.\main.c      ****         for(j = 0; j < MATRIX_SIZE; j++){
 394              		.loc 1 92 0 discriminator 3
 395 002e 0136     		add	r6, r6, #1
 396              	.LVL45:
 397 0030 F6B2     		uxtb	r6, r6
 398              	.LVL46:
 399 0032 00E0     		b	.L23
 400              	.LVL47:
 401              	.L24:
 402 0034 0026     		mov	r6, #0
 403              	.L23:
 404              	.LVL48:
  92:.\main.c      ****         for(j = 0; j < MATRIX_SIZE; j++){
 405              		.loc 1 92 0 is_stmt 0 discriminator 1
 406 0036 73B2     		sxtb	r3, r6
 407 0038 042B     		cmp	r3, #4
 408 003a E7DD     		ble	.L22
  91:.\main.c      ****         for(j = 0; j < MATRIX_SIZE; j++){
 409              		.loc 1 91 0 is_stmt 1 discriminator 2
 410 003c 0135     		add	r5, r5, #1
 411              	.LVL49:
ARM GAS  C:\Users\Gary\AppData\Local\Temp\ccyeRBSs.s 			page 10


 412 003e EDB2     		uxtb	r5, r5
 413              	.LVL50:
 414              	.L21:
  91:.\main.c      ****         for(j = 0; j < MATRIX_SIZE; j++){
 415              		.loc 1 91 0 is_stmt 0 discriminator 1
 416 0040 6BB2     		sxtb	r3, r5
 417 0042 042B     		cmp	r3, #4
 418 0044 F6DD     		ble	.L24
  94:.\main.c      ****         }
  95:.\main.c      ****     }
  96:.\main.c      **** }
 419              		.loc 1 96 0 is_stmt 1
 420              		@ sp needed
 421              	.LVL51:
 422              	.LVL52:
 423 0046 04BC     		pop	{r2}
 424 0048 9046     		mov	r8, r2
 425 004a F0BD     		pop	{r4, r5, r6, r7, pc}
 426              		.cfi_endproc
 427              	.LFE38:
 428              		.size	populateMatrix, .-populateMatrix
 429              		.section	.text.main,"ax",%progbits
 430              		.align	2
 431              		.global	main
 432              		.code	16
 433              		.thumb_func
 434              		.type	main, %function
 435              	main:
 436              	.LFB39:
  97:.\main.c      **** 
  98:.\main.c      **** int main()
  99:.\main.c      **** {
 437              		.loc 1 99 0
 438              		.cfi_startproc
 439 0000 00B5     		push	{lr}
 440              		.cfi_def_cfa_offset 4
 441              		.cfi_offset 14, -4
 442 0002 CDB0     		sub	sp, sp, #308
 443              		.cfi_def_cfa_offset 312
 100:.\main.c      ****     CyGlobalIntDisable;
 444              		.loc 1 100 0
 445              	@ 100 ".\main.c" 1
 446 0004 72B6     		CPSID   i
 447              	@ 0 "" 2
 101:.\main.c      ****     UART_Int_Start(); /* Start the ISR associated with UART. */
 448              		.loc 1 101 0
 449              		.code	16
 450 0006 FFF7FEFF 		bl	UART_Int_Start
 451              	.LVL53:
 102:.\main.c      ****     UART_Int_SetVector(uartISR); /* Update vector table. */
 452              		.loc 1 102 0
 453 000a 1248     		ldr	r0, .L27
 454 000c FFF7FEFF 		bl	UART_Int_SetVector
 455              	.LVL54:
 103:.\main.c      **** 
 104:.\main.c      ****     myTimer_Int_Start(); /* Start the ISR associated with timer. */
 456              		.loc 1 104 0
ARM GAS  C:\Users\Gary\AppData\Local\Temp\ccyeRBSs.s 			page 11


 457 0010 FFF7FEFF 		bl	myTimer_Int_Start
 458              	.LVL55:
 105:.\main.c      ****     myTimer_Int_SetVector(myTimerISR); /* Update vector table. */
 459              		.loc 1 105 0
 460 0014 1048     		ldr	r0, .L27+4
 461 0016 FFF7FEFF 		bl	myTimer_Int_SetVector
 462              	.LVL56:
 106:.\main.c      ****     CyGlobalIntEnable;
 463              		.loc 1 106 0
 464              	@ 106 ".\main.c" 1
 465 001a 62B6     		CPSIE   i
 466              	@ 0 "" 2
 107:.\main.c      ****     
 108:.\main.c      ****     UART_1_Start(); /* Start the UART. */
 467              		.loc 1 108 0
 468              		.code	16
 469 001c FFF7FEFF 		bl	UART_1_Start
 470              	.LVL57:
 109:.\main.c      ****     TIMER_1_Start(); /* Start timer. */
 471              		.loc 1 109 0
 472 0020 FFF7FEFF 		bl	TIMER_1_Start
 473              	.LVL58:
 110:.\main.c      ****     
 111:.\main.c      ****     srand(rand()); /* Initialize random number generator. */
 474              		.loc 1 111 0
 475 0024 FFF7FEFF 		bl	rand
 476              	.LVL59:
 477 0028 FFF7FEFF 		bl	srand
 478              	.LVL60:
 479              	.L26:
 112:.\main.c      ****     
 113:.\main.c      ****     float A[MATRIX_SIZE][MATRIX_SIZE];
 114:.\main.c      ****     float B[MATRIX_SIZE][MATRIX_SIZE];
 115:.\main.c      ****     float C[MATRIX_SIZE][MATRIX_SIZE];
 116:.\main.c      **** 
 117:.\main.c      ****     for(;;)
 118:.\main.c      ****     {
 119:.\main.c      ****         populateMatrix(A); /* Populate matrices with random numbers. */
 480              		.loc 1 119 0 discriminator 1
 481 002c 33A8     		add	r0, sp, #204
 482 002e FFF7FEFF 		bl	populateMatrix
 483              	.LVL61:
 120:.\main.c      ****         populateMatrix(B);
 484              		.loc 1 120 0 discriminator 1
 485 0032 1AA8     		add	r0, sp, #104
 486 0034 FFF7FEFF 		bl	populateMatrix
 487              	.LVL62:
 121:.\main.c      ****         
 122:.\main.c      ****         tic(); /* Time the multiplication operation. */
 488              		.loc 1 122 0 discriminator 1
 489 0038 FFF7FEFF 		bl	tic
 490              	.LVL63:
 123:.\main.c      ****         
 124:.\main.c      ****         matrixMult(A, B, C);
 491              		.loc 1 124 0 discriminator 1
 492 003c 33A8     		add	r0, sp, #204
 493 003e 1AA9     		add	r1, sp, #104
ARM GAS  C:\Users\Gary\AppData\Local\Temp\ccyeRBSs.s 			page 12


 494 0040 01AA     		add	r2, sp, #4
 495 0042 FFF7FEFF 		bl	matrixMult
 496              	.LVL64:
 125:.\main.c      ****         
 126:.\main.c      ****         toc();
 497              		.loc 1 126 0 discriminator 1
 498 0046 FFF7FEFF 		bl	toc
 499              	.LVL65:
 127:.\main.c      ****         
 128:.\main.c      ****         //UART_1_PutString("Hellooo \n\r");
 129:.\main.c      ****         //UART_1_PutChar(elapsedTime);
 130:.\main.c      ****         
 131:.\main.c      ****         /* Display elapsed time on the terminal. */
 132:.\main.c      ****         CyDelay(1000);
 500              		.loc 1 132 0 discriminator 1
 501 004a FA20     		mov	r0, #250
 502 004c 8000     		lsl	r0, r0, #2
 503 004e FFF7FEFF 		bl	CyDelay
 504              	.LVL66:
 133:.\main.c      ****     }
 505              		.loc 1 133 0 discriminator 1
 506 0052 EBE7     		b	.L26
 507              	.L28:
 508              		.align	2
 509              	.L27:
 510 0054 00000000 		.word	uartISR
 511 0058 00000000 		.word	myTimerISR
 512              		.cfi_endproc
 513              	.LFE39:
 514              		.size	main, .-main
 515              		.comm	elapsedTime,4,4
 516              		.global	clockTime
 517              		.comm	preTime,1,1
 518              		.comm	tc,4,4
 519              		.data
 520              		.align	2
 521              		.set	.LANCHOR0,. + 0
 522              		.type	clockTime, %object
 523              		.size	clockTime, 4
 524              	clockTime:
 525 0000 FCF43233 		.word	858977532
 526              		.section	.rodata.str1.4,"aMS",%progbits,1
 527              		.align	2
 528              	.LC0:
 529 0000 48692074 		.ascii	"Hi there! \012\015\000"
 529      68657265 
 529      21200A0D 
 529      00
 530 000d 000000   		.space	3
 531              	.LC10:
 532 0010 256600   		.ascii	"%f\000"
 533 0013 00       		.space	1
 534              	.LC12:
 535 0014 2073200A 		.ascii	" s \012\015\000"
 535      0D00
 536 001a 0000     		.text
 537              	.Letext0:
ARM GAS  C:\Users\Gary\AppData\Local\Temp\ccyeRBSs.s 			page 13


 538              		.file 2 "Generated_Source\\PSoC4/cytypes.h"
 539              		.file 3 "Generated_Source\\PSoC4/TIMER_1.h"
 540              		.file 4 "c:\\program files (x86)\\cypress\\psoc creator\\3.3\\psoc creator\\import\\gnu\\arm\\4.9.
 541              		.file 5 "Generated_Source\\PSoC4/UART_1.h"
 542              		.file 6 "Generated_Source\\PSoC4/UART_Int.h"
 543              		.file 7 "Generated_Source\\PSoC4/myTimer_Int.h"
 544              		.file 8 "c:\\program files (x86)\\cypress\\psoc creator\\3.3\\psoc creator\\import\\gnu\\arm\\4.9.
 545              		.file 9 "Generated_Source\\PSoC4/CyLib.h"