ARM GAS  C:\Users\Gary\AppData\Local\Temp\ccEjXQUu.s 			page 1


   1              		.cpu cortex-m0
   2              		.fpu softvfp
   3              		.eabi_attribute 20, 1
   4              		.eabi_attribute 21, 1
   5              		.eabi_attribute 23, 3
   6              		.eabi_attribute 24, 1
   7              		.eabi_attribute 25, 1
   8              		.eabi_attribute 26, 1
   9              		.eabi_attribute 30, 1
  10              		.eabi_attribute 34, 0
  11              		.eabi_attribute 18, 4
  12              		.code	16
  13              		.file	"cyfitter_cfg.c"
  14              		.text
  15              	.Ltext0:
  16              		.cfi_sections	.debug_frame
  17              		.section	.text.cfg_write_bytes32,"ax",%progbits
  18              		.align	2
  19              		.code	16
  20              		.thumb_func
  21              		.type	cfg_write_bytes32, %function
  22              	cfg_write_bytes32:
  23              	.LFB3:
  24              		.file 1 ".\\Generated_Source\\PSoC4\\cyfitter_cfg.c"
   1:.\Generated_Source\PSoC4/cyfitter_cfg.c **** /*******************************************************************************
   2:.\Generated_Source\PSoC4/cyfitter_cfg.c **** * File Name: cyfitter_cfg.c
   3:.\Generated_Source\PSoC4/cyfitter_cfg.c **** * 
   4:.\Generated_Source\PSoC4/cyfitter_cfg.c **** * PSoC Creator  3.3 CP1
   5:.\Generated_Source\PSoC4/cyfitter_cfg.c **** *
   6:.\Generated_Source\PSoC4/cyfitter_cfg.c **** * Description:
   7:.\Generated_Source\PSoC4/cyfitter_cfg.c **** * This file contains device initialization code.
   8:.\Generated_Source\PSoC4/cyfitter_cfg.c **** * Except for the user defined sections in CyClockStartupError(), this file should not be modified.
   9:.\Generated_Source\PSoC4/cyfitter_cfg.c **** * This file is automatically generated by PSoC Creator.
  10:.\Generated_Source\PSoC4/cyfitter_cfg.c **** *
  11:.\Generated_Source\PSoC4/cyfitter_cfg.c **** ********************************************************************************
  12:.\Generated_Source\PSoC4/cyfitter_cfg.c **** * Copyright (c) 2007-2015 Cypress Semiconductor.  All rights reserved.
  13:.\Generated_Source\PSoC4/cyfitter_cfg.c **** * You may use this file only in accordance with the license, terms, conditions, 
  14:.\Generated_Source\PSoC4/cyfitter_cfg.c **** * disclaimers, and limitations in the end user license agreement accompanying 
  15:.\Generated_Source\PSoC4/cyfitter_cfg.c **** * the software package with which this file was provided.
  16:.\Generated_Source\PSoC4/cyfitter_cfg.c **** ********************************************************************************/
  17:.\Generated_Source\PSoC4/cyfitter_cfg.c **** 
  18:.\Generated_Source\PSoC4/cyfitter_cfg.c **** #include <string.h>
  19:.\Generated_Source\PSoC4/cyfitter_cfg.c **** #include "cytypes.h"
  20:.\Generated_Source\PSoC4/cyfitter_cfg.c **** #include "cydevice_trm.h"
  21:.\Generated_Source\PSoC4/cyfitter_cfg.c **** #include "cyfitter.h"
  22:.\Generated_Source\PSoC4/cyfitter_cfg.c **** #include "CyLib.h"
  23:.\Generated_Source\PSoC4/cyfitter_cfg.c **** #include "CyLFClk.h"
  24:.\Generated_Source\PSoC4/cyfitter_cfg.c **** #include "cyfitter_cfg.h"
  25:.\Generated_Source\PSoC4/cyfitter_cfg.c **** 
  26:.\Generated_Source\PSoC4/cyfitter_cfg.c **** 
  27:.\Generated_Source\PSoC4/cyfitter_cfg.c **** #if defined(__GNUC__) || defined(__ARMCC_VERSION)
  28:.\Generated_Source\PSoC4/cyfitter_cfg.c ****     #define CYPACKED 
  29:.\Generated_Source\PSoC4/cyfitter_cfg.c ****     #define CYPACKED_ATTR __attribute__ ((packed))
  30:.\Generated_Source\PSoC4/cyfitter_cfg.c ****     #define CYALIGNED __attribute__ ((aligned))
  31:.\Generated_Source\PSoC4/cyfitter_cfg.c ****     #define CY_CFG_UNUSED __attribute__ ((unused))
  32:.\Generated_Source\PSoC4/cyfitter_cfg.c ****     #define CY_CFG_SECTION __attribute__ ((section(".psocinit")))
  33:.\Generated_Source\PSoC4/cyfitter_cfg.c ****     
ARM GAS  C:\Users\Gary\AppData\Local\Temp\ccEjXQUu.s 			page 2


  34:.\Generated_Source\PSoC4/cyfitter_cfg.c ****     #if defined(__ARMCC_VERSION)
  35:.\Generated_Source\PSoC4/cyfitter_cfg.c ****         #define CY_CFG_MEMORY_BARRIER() __memory_changed()
  36:.\Generated_Source\PSoC4/cyfitter_cfg.c ****     #else
  37:.\Generated_Source\PSoC4/cyfitter_cfg.c ****         #define CY_CFG_MEMORY_BARRIER() __sync_synchronize()
  38:.\Generated_Source\PSoC4/cyfitter_cfg.c ****     #endif
  39:.\Generated_Source\PSoC4/cyfitter_cfg.c ****     
  40:.\Generated_Source\PSoC4/cyfitter_cfg.c **** #elif defined(__ICCARM__)
  41:.\Generated_Source\PSoC4/cyfitter_cfg.c ****     #include <intrinsics.h>
  42:.\Generated_Source\PSoC4/cyfitter_cfg.c **** 
  43:.\Generated_Source\PSoC4/cyfitter_cfg.c ****     #define CYPACKED __packed
  44:.\Generated_Source\PSoC4/cyfitter_cfg.c ****     #define CYPACKED_ATTR 
  45:.\Generated_Source\PSoC4/cyfitter_cfg.c ****     #define CYALIGNED _Pragma("data_alignment=4")
  46:.\Generated_Source\PSoC4/cyfitter_cfg.c ****     #define CY_CFG_UNUSED _Pragma("diag_suppress=Pe177")
  47:.\Generated_Source\PSoC4/cyfitter_cfg.c ****     #define CY_CFG_SECTION _Pragma("location=\".psocinit\"")
  48:.\Generated_Source\PSoC4/cyfitter_cfg.c ****     
  49:.\Generated_Source\PSoC4/cyfitter_cfg.c ****     #define CY_CFG_MEMORY_BARRIER() __DMB()
  50:.\Generated_Source\PSoC4/cyfitter_cfg.c ****     
  51:.\Generated_Source\PSoC4/cyfitter_cfg.c **** #else
  52:.\Generated_Source\PSoC4/cyfitter_cfg.c ****     #error Unsupported toolchain
  53:.\Generated_Source\PSoC4/cyfitter_cfg.c **** #endif
  54:.\Generated_Source\PSoC4/cyfitter_cfg.c **** 
  55:.\Generated_Source\PSoC4/cyfitter_cfg.c **** 
  56:.\Generated_Source\PSoC4/cyfitter_cfg.c **** CY_CFG_UNUSED
  57:.\Generated_Source\PSoC4/cyfitter_cfg.c **** static void CYMEMZERO(void *s, size_t n);
  58:.\Generated_Source\PSoC4/cyfitter_cfg.c **** CY_CFG_UNUSED
  59:.\Generated_Source\PSoC4/cyfitter_cfg.c **** static void CYMEMZERO(void *s, size_t n)
  60:.\Generated_Source\PSoC4/cyfitter_cfg.c **** {
  61:.\Generated_Source\PSoC4/cyfitter_cfg.c **** 	(void)memset(s, 0, n);
  62:.\Generated_Source\PSoC4/cyfitter_cfg.c **** }
  63:.\Generated_Source\PSoC4/cyfitter_cfg.c **** CY_CFG_UNUSED
  64:.\Generated_Source\PSoC4/cyfitter_cfg.c **** static void CYCONFIGCPY(void *dest, const void *src, size_t n);
  65:.\Generated_Source\PSoC4/cyfitter_cfg.c **** CY_CFG_UNUSED
  66:.\Generated_Source\PSoC4/cyfitter_cfg.c **** static void CYCONFIGCPY(void *dest, const void *src, size_t n)
  67:.\Generated_Source\PSoC4/cyfitter_cfg.c **** {
  68:.\Generated_Source\PSoC4/cyfitter_cfg.c **** 	(void)memcpy(dest, src, n);
  69:.\Generated_Source\PSoC4/cyfitter_cfg.c **** }
  70:.\Generated_Source\PSoC4/cyfitter_cfg.c **** CY_CFG_UNUSED
  71:.\Generated_Source\PSoC4/cyfitter_cfg.c **** static void CYCONFIGCPYCODE(void *dest, const void *src, size_t n);
  72:.\Generated_Source\PSoC4/cyfitter_cfg.c **** CY_CFG_UNUSED
  73:.\Generated_Source\PSoC4/cyfitter_cfg.c **** static void CYCONFIGCPYCODE(void *dest, const void *src, size_t n)
  74:.\Generated_Source\PSoC4/cyfitter_cfg.c **** {
  75:.\Generated_Source\PSoC4/cyfitter_cfg.c **** 	(void)memcpy(dest, src, n);
  76:.\Generated_Source\PSoC4/cyfitter_cfg.c **** }
  77:.\Generated_Source\PSoC4/cyfitter_cfg.c **** 
  78:.\Generated_Source\PSoC4/cyfitter_cfg.c **** 
  79:.\Generated_Source\PSoC4/cyfitter_cfg.c **** 
  80:.\Generated_Source\PSoC4/cyfitter_cfg.c **** /* Clock startup error codes                                                   */
  81:.\Generated_Source\PSoC4/cyfitter_cfg.c **** #define CYCLOCKSTART_NO_ERROR    0u
  82:.\Generated_Source\PSoC4/cyfitter_cfg.c **** #define CYCLOCKSTART_XTAL_ERROR  1u
  83:.\Generated_Source\PSoC4/cyfitter_cfg.c **** #define CYCLOCKSTART_32KHZ_ERROR 2u
  84:.\Generated_Source\PSoC4/cyfitter_cfg.c **** #define CYCLOCKSTART_PLL_ERROR   3u
  85:.\Generated_Source\PSoC4/cyfitter_cfg.c **** 
  86:.\Generated_Source\PSoC4/cyfitter_cfg.c **** #ifdef CY_NEED_CYCLOCKSTARTUPERROR
  87:.\Generated_Source\PSoC4/cyfitter_cfg.c **** /*******************************************************************************
  88:.\Generated_Source\PSoC4/cyfitter_cfg.c **** * Function Name: CyClockStartupError
  89:.\Generated_Source\PSoC4/cyfitter_cfg.c **** ********************************************************************************
  90:.\Generated_Source\PSoC4/cyfitter_cfg.c **** * Summary:
ARM GAS  C:\Users\Gary\AppData\Local\Temp\ccEjXQUu.s 			page 3


  91:.\Generated_Source\PSoC4/cyfitter_cfg.c **** *  If an error is encountered during clock configuration (crystal startup error,
  92:.\Generated_Source\PSoC4/cyfitter_cfg.c **** *  PLL lock error, etc.), the system will end up here.  Unless reimplemented by
  93:.\Generated_Source\PSoC4/cyfitter_cfg.c **** *  the customer, this function will stop in an infinite loop.
  94:.\Generated_Source\PSoC4/cyfitter_cfg.c **** *
  95:.\Generated_Source\PSoC4/cyfitter_cfg.c **** * Parameters:
  96:.\Generated_Source\PSoC4/cyfitter_cfg.c **** *   void
  97:.\Generated_Source\PSoC4/cyfitter_cfg.c **** *
  98:.\Generated_Source\PSoC4/cyfitter_cfg.c **** * Return:
  99:.\Generated_Source\PSoC4/cyfitter_cfg.c **** *   void
 100:.\Generated_Source\PSoC4/cyfitter_cfg.c **** *
 101:.\Generated_Source\PSoC4/cyfitter_cfg.c **** *******************************************************************************/
 102:.\Generated_Source\PSoC4/cyfitter_cfg.c **** CY_CFG_UNUSED
 103:.\Generated_Source\PSoC4/cyfitter_cfg.c **** static void CyClockStartupError(uint8 errorCode);
 104:.\Generated_Source\PSoC4/cyfitter_cfg.c **** CY_CFG_UNUSED
 105:.\Generated_Source\PSoC4/cyfitter_cfg.c **** static void CyClockStartupError(uint8 errorCode)
 106:.\Generated_Source\PSoC4/cyfitter_cfg.c **** {
 107:.\Generated_Source\PSoC4/cyfitter_cfg.c ****     /* To remove the compiler warning if errorCode not used.                */
 108:.\Generated_Source\PSoC4/cyfitter_cfg.c ****     errorCode = errorCode;
 109:.\Generated_Source\PSoC4/cyfitter_cfg.c **** 
 110:.\Generated_Source\PSoC4/cyfitter_cfg.c ****     /* `#START CyClockStartupError` */
 111:.\Generated_Source\PSoC4/cyfitter_cfg.c **** 
 112:.\Generated_Source\PSoC4/cyfitter_cfg.c ****     /* If we have a clock startup error (bad MHz crystal, PLL lock, etc.),  */
 113:.\Generated_Source\PSoC4/cyfitter_cfg.c ****     /* we will end up here to allow the customer to implement something to  */
 114:.\Generated_Source\PSoC4/cyfitter_cfg.c ****     /* deal with the clock condition.                                       */
 115:.\Generated_Source\PSoC4/cyfitter_cfg.c **** 
 116:.\Generated_Source\PSoC4/cyfitter_cfg.c ****     /* `#END` */
 117:.\Generated_Source\PSoC4/cyfitter_cfg.c **** 
 118:.\Generated_Source\PSoC4/cyfitter_cfg.c ****     /* If nothing else, stop here since the clocks have not started         */
 119:.\Generated_Source\PSoC4/cyfitter_cfg.c ****     /* correctly.                                                           */
 120:.\Generated_Source\PSoC4/cyfitter_cfg.c ****     while(1) {}
 121:.\Generated_Source\PSoC4/cyfitter_cfg.c **** }
 122:.\Generated_Source\PSoC4/cyfitter_cfg.c **** #endif
 123:.\Generated_Source\PSoC4/cyfitter_cfg.c **** 
 124:.\Generated_Source\PSoC4/cyfitter_cfg.c **** #define CY_CFG_BASE_ADDR_COUNT 8u
 125:.\Generated_Source\PSoC4/cyfitter_cfg.c **** CYPACKED typedef struct
 126:.\Generated_Source\PSoC4/cyfitter_cfg.c **** {
 127:.\Generated_Source\PSoC4/cyfitter_cfg.c **** 	uint8 offset;
 128:.\Generated_Source\PSoC4/cyfitter_cfg.c **** 	uint8 value;
 129:.\Generated_Source\PSoC4/cyfitter_cfg.c **** } CYPACKED_ATTR cy_cfg_addrvalue_t;
 130:.\Generated_Source\PSoC4/cyfitter_cfg.c **** 
 131:.\Generated_Source\PSoC4/cyfitter_cfg.c **** 
 132:.\Generated_Source\PSoC4/cyfitter_cfg.c **** 
 133:.\Generated_Source\PSoC4/cyfitter_cfg.c **** /*******************************************************************************
 134:.\Generated_Source\PSoC4/cyfitter_cfg.c **** * Function Name: cfg_write_bytes32
 135:.\Generated_Source\PSoC4/cyfitter_cfg.c **** ********************************************************************************
 136:.\Generated_Source\PSoC4/cyfitter_cfg.c **** * Summary:
 137:.\Generated_Source\PSoC4/cyfitter_cfg.c **** *  This function is used for setting up the chip configuration areas that
 138:.\Generated_Source\PSoC4/cyfitter_cfg.c **** *  contain relatively sparse data.
 139:.\Generated_Source\PSoC4/cyfitter_cfg.c **** *
 140:.\Generated_Source\PSoC4/cyfitter_cfg.c **** * Parameters:
 141:.\Generated_Source\PSoC4/cyfitter_cfg.c **** *   void
 142:.\Generated_Source\PSoC4/cyfitter_cfg.c **** *
 143:.\Generated_Source\PSoC4/cyfitter_cfg.c **** * Return:
 144:.\Generated_Source\PSoC4/cyfitter_cfg.c **** *   void
 145:.\Generated_Source\PSoC4/cyfitter_cfg.c **** *
 146:.\Generated_Source\PSoC4/cyfitter_cfg.c **** *******************************************************************************/
 147:.\Generated_Source\PSoC4/cyfitter_cfg.c **** static void cfg_write_bytes32(const uint32 addr_table[], const cy_cfg_addrvalue_t data_table[]);
ARM GAS  C:\Users\Gary\AppData\Local\Temp\ccEjXQUu.s 			page 4


 148:.\Generated_Source\PSoC4/cyfitter_cfg.c **** static void cfg_write_bytes32(const uint32 addr_table[], const cy_cfg_addrvalue_t data_table[])
 149:.\Generated_Source\PSoC4/cyfitter_cfg.c **** {
  25              		.loc 1 149 0
  26              		.cfi_startproc
  27              	.LVL0:
  28 0000 F0B5     		push	{r4, r5, r6, r7, lr}
  29              		.cfi_def_cfa_offset 20
  30              		.cfi_offset 4, -20
  31              		.cfi_offset 5, -16
  32              		.cfi_offset 6, -12
  33              		.cfi_offset 7, -8
  34              		.cfi_offset 14, -4
  35              	.LVL1:
 150:.\Generated_Source\PSoC4/cyfitter_cfg.c **** 	/* For 32-bit little-endian architectures */
 151:.\Generated_Source\PSoC4/cyfitter_cfg.c **** 	uint32 i, j = 0u;
  36              		.loc 1 151 0
  37 0002 0025     		mov	r5, #0
 152:.\Generated_Source\PSoC4/cyfitter_cfg.c **** 	for (i = 0u; i < CY_CFG_BASE_ADDR_COUNT; i++)
  38              		.loc 1 152 0
  39 0004 0027     		mov	r7, #0
  40 0006 11E0     		b	.L2
  41              	.LVL2:
  42              	.L5:
  43              	.LBB2:
 153:.\Generated_Source\PSoC4/cyfitter_cfg.c **** 	{
 154:.\Generated_Source\PSoC4/cyfitter_cfg.c **** 		uint32 baseAddr = addr_table[i];
  44              		.loc 1 154 0
  45 0008 BB00     		lsl	r3, r7, #2
  46 000a C658     		ldr	r6, [r0, r3]
  47              	.LVL3:
 155:.\Generated_Source\PSoC4/cyfitter_cfg.c **** 		uint8 count = (uint8)baseAddr;
  48              		.loc 1 155 0
  49 000c F3B2     		uxtb	r3, r6
  50              	.LVL4:
 156:.\Generated_Source\PSoC4/cyfitter_cfg.c **** 		baseAddr &= 0xFFFFFF00u;
  51              		.loc 1 156 0
  52 000e FF22     		mov	r2, #255
  53 0010 9643     		bic	r6, r2
  54              	.LVL5:
 157:.\Generated_Source\PSoC4/cyfitter_cfg.c **** 		while (count != 0u)
  55              		.loc 1 157 0
  56 0012 08E0     		b	.L3
  57              	.L4:
 158:.\Generated_Source\PSoC4/cyfitter_cfg.c **** 		{
 159:.\Generated_Source\PSoC4/cyfitter_cfg.c **** 			CY_SET_XTND_REG8((void CYFAR *)(baseAddr + data_table[j].offset), data_table[j].value);
  58              		.loc 1 159 0
  59 0014 6A00     		lsl	r2, r5, #1
  60 0016 8A18     		add	r2, r1, r2
  61 0018 1478     		ldrb	r4, [r2]
  62 001a A419     		add	r4, r4, r6
  63 001c 5278     		ldrb	r2, [r2, #1]
  64 001e 2270     		strb	r2, [r4]
 160:.\Generated_Source\PSoC4/cyfitter_cfg.c **** 			j++;
  65              		.loc 1 160 0
  66 0020 0135     		add	r5, r5, #1
  67              	.LVL6:
 161:.\Generated_Source\PSoC4/cyfitter_cfg.c **** 			count--;
ARM GAS  C:\Users\Gary\AppData\Local\Temp\ccEjXQUu.s 			page 5


  68              		.loc 1 161 0
  69 0022 013B     		sub	r3, r3, #1
  70              	.LVL7:
  71 0024 DBB2     		uxtb	r3, r3
  72              	.LVL8:
  73              	.L3:
 157:.\Generated_Source\PSoC4/cyfitter_cfg.c **** 		{
  74              		.loc 1 157 0
  75 0026 002B     		cmp	r3, #0
  76 0028 F4D1     		bne	.L4
  77              	.LBE2:
 152:.\Generated_Source\PSoC4/cyfitter_cfg.c **** 	{
  78              		.loc 1 152 0 discriminator 2
  79 002a 0137     		add	r7, r7, #1
  80              	.LVL9:
  81              	.L2:
 152:.\Generated_Source\PSoC4/cyfitter_cfg.c **** 	{
  82              		.loc 1 152 0 is_stmt 0 discriminator 1
  83 002c 072F     		cmp	r7, #7
  84 002e EBD9     		bls	.L5
 162:.\Generated_Source\PSoC4/cyfitter_cfg.c **** 		}
 163:.\Generated_Source\PSoC4/cyfitter_cfg.c **** 	}
 164:.\Generated_Source\PSoC4/cyfitter_cfg.c **** }
  85              		.loc 1 164 0 is_stmt 1
  86              		@ sp needed
  87              	.LVL10:
  88              	.LVL11:
  89 0030 F0BD     		pop	{r4, r5, r6, r7, pc}
  90              		.cfi_endproc
  91              	.LFE3:
  92              		.size	cfg_write_bytes32, .-cfg_write_bytes32
  93 0032 C046     		.section	.text.CYMEMZERO,"ax",%progbits
  94              		.align	2
  95              		.code	16
  96              		.thumb_func
  97              		.type	CYMEMZERO, %function
  98              	CYMEMZERO:
  99              	.LFB0:
  60:.\Generated_Source\PSoC4/cyfitter_cfg.c **** 	(void)memset(s, 0, n);
 100              		.loc 1 60 0
 101              		.cfi_startproc
 102              	.LVL12:
 103 0000 08B5     		push	{r3, lr}
 104              		.cfi_def_cfa_offset 8
 105              		.cfi_offset 3, -8
 106              		.cfi_offset 14, -4
 107 0002 0A1C     		mov	r2, r1
  61:.\Generated_Source\PSoC4/cyfitter_cfg.c **** }
 108              		.loc 1 61 0
 109 0004 0021     		mov	r1, #0
 110              	.LVL13:
 111 0006 FFF7FEFF 		bl	memset
 112              	.LVL14:
  62:.\Generated_Source\PSoC4/cyfitter_cfg.c **** CY_CFG_UNUSED
 113              		.loc 1 62 0
 114              		@ sp needed
 115 000a 08BD     		pop	{r3, pc}
ARM GAS  C:\Users\Gary\AppData\Local\Temp\ccEjXQUu.s 			page 6


 116              		.cfi_endproc
 117              	.LFE0:
 118              		.size	CYMEMZERO, .-CYMEMZERO
 119              		.section	.text.CYCONFIGCPYCODE,"ax",%progbits
 120              		.align	2
 121              		.code	16
 122              		.thumb_func
 123              		.type	CYCONFIGCPYCODE, %function
 124              	CYCONFIGCPYCODE:
 125              	.LFB2:
  74:.\Generated_Source\PSoC4/cyfitter_cfg.c **** 	(void)memcpy(dest, src, n);
 126              		.loc 1 74 0
 127              		.cfi_startproc
 128              	.LVL15:
 129 0000 08B5     		push	{r3, lr}
 130              		.cfi_def_cfa_offset 8
 131              		.cfi_offset 3, -8
 132              		.cfi_offset 14, -4
  75:.\Generated_Source\PSoC4/cyfitter_cfg.c **** }
 133              		.loc 1 75 0
 134 0002 FFF7FEFF 		bl	memcpy
 135              	.LVL16:
  76:.\Generated_Source\PSoC4/cyfitter_cfg.c **** 
 136              		.loc 1 76 0
 137              		@ sp needed
 138 0006 08BD     		pop	{r3, pc}
 139              		.cfi_endproc
 140              	.LFE2:
 141              		.size	CYCONFIGCPYCODE, .-CYCONFIGCPYCODE
 142              		.section	.psocinit,"ax",%progbits
 143              		.align	2
 144              		.code	16
 145              		.thumb_func
 146              		.type	ClockSetup, %function
 147              	ClockSetup:
 148              	.LFB4:
 165:.\Generated_Source\PSoC4/cyfitter_cfg.c **** 
 166:.\Generated_Source\PSoC4/cyfitter_cfg.c **** 
 167:.\Generated_Source\PSoC4/cyfitter_cfg.c **** /*******************************************************************************
 168:.\Generated_Source\PSoC4/cyfitter_cfg.c **** * Function Name: ClockSetup
 169:.\Generated_Source\PSoC4/cyfitter_cfg.c **** ********************************************************************************
 170:.\Generated_Source\PSoC4/cyfitter_cfg.c **** *
 171:.\Generated_Source\PSoC4/cyfitter_cfg.c **** * Summary:
 172:.\Generated_Source\PSoC4/cyfitter_cfg.c **** *   Performs the initialization of all of the clocks in the device based on the
 173:.\Generated_Source\PSoC4/cyfitter_cfg.c **** *   settings in the Clock tab of the DWR.  This includes enabling the requested
 174:.\Generated_Source\PSoC4/cyfitter_cfg.c **** *   clocks and setting the necessary dividers to produce the desired frequency. 
 175:.\Generated_Source\PSoC4/cyfitter_cfg.c **** *
 176:.\Generated_Source\PSoC4/cyfitter_cfg.c **** * Parameters:
 177:.\Generated_Source\PSoC4/cyfitter_cfg.c **** *   void
 178:.\Generated_Source\PSoC4/cyfitter_cfg.c **** *
 179:.\Generated_Source\PSoC4/cyfitter_cfg.c **** * Return:
 180:.\Generated_Source\PSoC4/cyfitter_cfg.c **** *   void
 181:.\Generated_Source\PSoC4/cyfitter_cfg.c **** *
 182:.\Generated_Source\PSoC4/cyfitter_cfg.c **** *******************************************************************************/
 183:.\Generated_Source\PSoC4/cyfitter_cfg.c **** static void ClockSetup(void);
 184:.\Generated_Source\PSoC4/cyfitter_cfg.c **** CY_CFG_SECTION
 185:.\Generated_Source\PSoC4/cyfitter_cfg.c **** static void ClockSetup(void)
ARM GAS  C:\Users\Gary\AppData\Local\Temp\ccEjXQUu.s 			page 7


 186:.\Generated_Source\PSoC4/cyfitter_cfg.c **** {
 149              		.loc 1 186 0
 150              		.cfi_startproc
 151 0000 10B5     		push	{r4, lr}
 152              		.cfi_def_cfa_offset 8
 153              		.cfi_offset 4, -8
 154              		.cfi_offset 14, -4
 187:.\Generated_Source\PSoC4/cyfitter_cfg.c **** 	/* Enable HALF_EN before trimming for the flash accelerator. */
 188:.\Generated_Source\PSoC4/cyfitter_cfg.c **** 	CY_SET_REG32((void CYXDATA *)(CYREG_CLK_SELECT), (CY_GET_REG32((void *)CYREG_CLK_SELECT) | 0x00040
 155              		.loc 1 188 0
 156 0002 124C     		ldr	r4, .L9
 157 0004 2368     		ldr	r3, [r4]
 158 0006 8022     		mov	r2, #128
 159 0008 D202     		lsl	r2, r2, #11
 160 000a 1343     		orr	r3, r2
 161 000c 2360     		str	r3, [r4]
 189:.\Generated_Source\PSoC4/cyfitter_cfg.c **** 
 190:.\Generated_Source\PSoC4/cyfitter_cfg.c **** 	/* Setup and trim IMO based on desired frequency. */
 191:.\Generated_Source\PSoC4/cyfitter_cfg.c **** 	CySysClkWriteImoFreq(24u);
 162              		.loc 1 191 0
 163 000e 1820     		mov	r0, #24
 164 0010 FFF7FEFF 		bl	CySysClkWriteImoFreq
 165              	.LVL17:
 192:.\Generated_Source\PSoC4/cyfitter_cfg.c **** 
 193:.\Generated_Source\PSoC4/cyfitter_cfg.c **** 	/* Disable HALF_EN since it is not required at this IMO frequency. */
 194:.\Generated_Source\PSoC4/cyfitter_cfg.c **** 	CY_SET_REG32((void CYXDATA *)(CYREG_CLK_SELECT), (CY_GET_REG32((void *)CYREG_CLK_SELECT) & 0xFFFBF
 166              		.loc 1 194 0
 167 0014 2268     		ldr	r2, [r4]
 168 0016 0E4B     		ldr	r3, .L9+4
 169 0018 1340     		and	r3, r2
 170 001a 2360     		str	r3, [r4]
 195:.\Generated_Source\PSoC4/cyfitter_cfg.c **** 	/* CYDEV_CLK_ILO_CONFIG Starting address: CYDEV_CLK_ILO_CONFIG */
 196:.\Generated_Source\PSoC4/cyfitter_cfg.c **** 	CY_SET_XTND_REG32((void CYFAR *)(CYREG_CLK_ILO_CONFIG), 0x80000006u);
 171              		.loc 1 196 0
 172 001c 0D4A     		ldr	r2, .L9+8
 173 001e 0E4B     		ldr	r3, .L9+12
 174 0020 1A60     		str	r2, [r3]
 197:.\Generated_Source\PSoC4/cyfitter_cfg.c **** 
 198:.\Generated_Source\PSoC4/cyfitter_cfg.c **** 
 199:.\Generated_Source\PSoC4/cyfitter_cfg.c **** 	/* CYDEV_CLK_SELECT00 Starting address: CYDEV_CLK_SELECT00 */
 200:.\Generated_Source\PSoC4/cyfitter_cfg.c **** 	CY_SET_XTND_REG32((void CYFAR *)(CYREG_CLK_SELECT12), 0x00000010u);
 175              		.loc 1 200 0
 176 0022 1022     		mov	r2, #16
 177 0024 0D4B     		ldr	r3, .L9+16
 178 0026 1A60     		str	r2, [r3]
 201:.\Generated_Source\PSoC4/cyfitter_cfg.c **** 
 202:.\Generated_Source\PSoC4/cyfitter_cfg.c **** 	/* CYDEV_CLK_IMO_CONFIG Starting address: CYDEV_CLK_IMO_CONFIG */
 203:.\Generated_Source\PSoC4/cyfitter_cfg.c **** 	CY_SET_XTND_REG32((void CYFAR *)(CYREG_CLK_IMO_CONFIG), 0x80000000u);
 179              		.loc 1 203 0
 180 0028 8022     		mov	r2, #128
 181 002a 1206     		lsl	r2, r2, #24
 182 002c 0C4B     		ldr	r3, .L9+20
 183 002e 1A60     		str	r2, [r3]
 204:.\Generated_Source\PSoC4/cyfitter_cfg.c **** 
 205:.\Generated_Source\PSoC4/cyfitter_cfg.c **** 	/* CYDEV_CLK_DIVIDER_A00 Starting address: CYDEV_CLK_DIVIDER_A00 */
 206:.\Generated_Source\PSoC4/cyfitter_cfg.c **** 	CY_SET_XTND_REG32((void CYFAR *)(CYREG_CLK_DIVIDER_A00), 0x80000138u);
 184              		.loc 1 206 0
ARM GAS  C:\Users\Gary\AppData\Local\Temp\ccEjXQUu.s 			page 8


 185 0030 0C4A     		ldr	r2, .L9+24
 186 0032 0D4B     		ldr	r3, .L9+28
 187 0034 1A60     		str	r2, [r3]
 207:.\Generated_Source\PSoC4/cyfitter_cfg.c **** 
 208:.\Generated_Source\PSoC4/cyfitter_cfg.c **** 	(void)CyIntSetVector(9u, &CySysWdtIsr);
 188              		.loc 1 208 0
 189 0036 0920     		mov	r0, #9
 190 0038 0C49     		ldr	r1, .L9+32
 191 003a FFF7FEFF 		bl	CyIntSetVector
 192              	.LVL18:
 209:.\Generated_Source\PSoC4/cyfitter_cfg.c **** 	CyIntEnable(9u);
 193              		.loc 1 209 0
 194 003e 0920     		mov	r0, #9
 195 0040 FFF7FEFF 		bl	CyIntEnable
 196              	.LVL19:
 210:.\Generated_Source\PSoC4/cyfitter_cfg.c **** 	CY_SET_XTND_REG32((void CYFAR *)(CYREG_WDT_CONFIG), 0x00000000u);
 197              		.loc 1 210 0
 198 0044 0022     		mov	r2, #0
 199 0046 0A4B     		ldr	r3, .L9+36
 200 0048 1A60     		str	r2, [r3]
 211:.\Generated_Source\PSoC4/cyfitter_cfg.c **** }
 201              		.loc 1 211 0
 202              		@ sp needed
 203 004a 10BD     		pop	{r4, pc}
 204              	.L10:
 205              		.align	2
 206              	.L9:
 207 004c 00010B40 		.word	1074462976
 208 0050 FFFFFBFF 		.word	-262145
 209 0054 06000080 		.word	-2147483642
 210 0058 04010B40 		.word	1074462980
 211 005c 30020240 		.word	1073873456
 212 0060 08010B40 		.word	1074462984
 213 0064 38010080 		.word	-2147483336
 214 0068 00000240 		.word	1073872896
 215 006c 00000000 		.word	CySysWdtIsr
 216 0070 0C020B40 		.word	1074463244
 217              		.cfi_endproc
 218              	.LFE4:
 219              		.size	ClockSetup, .-ClockSetup
 220              		.align	2
 221              		.global	cyfitter_cfg
 222              		.code	16
 223              		.thumb_func
 224              		.type	cyfitter_cfg, %function
 225              	cyfitter_cfg:
 226              	.LFB6:
 212:.\Generated_Source\PSoC4/cyfitter_cfg.c **** 
 213:.\Generated_Source\PSoC4/cyfitter_cfg.c **** 
 214:.\Generated_Source\PSoC4/cyfitter_cfg.c **** /* Analog API Functions */
 215:.\Generated_Source\PSoC4/cyfitter_cfg.c **** 
 216:.\Generated_Source\PSoC4/cyfitter_cfg.c **** 
 217:.\Generated_Source\PSoC4/cyfitter_cfg.c **** /*******************************************************************************
 218:.\Generated_Source\PSoC4/cyfitter_cfg.c **** * Function Name: AnalogSetDefault
 219:.\Generated_Source\PSoC4/cyfitter_cfg.c **** ********************************************************************************
 220:.\Generated_Source\PSoC4/cyfitter_cfg.c **** *
 221:.\Generated_Source\PSoC4/cyfitter_cfg.c **** * Summary:
ARM GAS  C:\Users\Gary\AppData\Local\Temp\ccEjXQUu.s 			page 9


 222:.\Generated_Source\PSoC4/cyfitter_cfg.c **** *  Sets up the analog portions of the chip to default values based on chip
 223:.\Generated_Source\PSoC4/cyfitter_cfg.c **** *  configuration options from the project.
 224:.\Generated_Source\PSoC4/cyfitter_cfg.c **** *
 225:.\Generated_Source\PSoC4/cyfitter_cfg.c **** * Parameters:
 226:.\Generated_Source\PSoC4/cyfitter_cfg.c **** *  void
 227:.\Generated_Source\PSoC4/cyfitter_cfg.c **** *
 228:.\Generated_Source\PSoC4/cyfitter_cfg.c **** * Return:
 229:.\Generated_Source\PSoC4/cyfitter_cfg.c **** *  void
 230:.\Generated_Source\PSoC4/cyfitter_cfg.c **** *
 231:.\Generated_Source\PSoC4/cyfitter_cfg.c **** *******************************************************************************/
 232:.\Generated_Source\PSoC4/cyfitter_cfg.c **** static void AnalogSetDefault(void);
 233:.\Generated_Source\PSoC4/cyfitter_cfg.c **** static void AnalogSetDefault(void)
 234:.\Generated_Source\PSoC4/cyfitter_cfg.c **** {
 235:.\Generated_Source\PSoC4/cyfitter_cfg.c **** }
 236:.\Generated_Source\PSoC4/cyfitter_cfg.c **** 
 237:.\Generated_Source\PSoC4/cyfitter_cfg.c **** #define CY_AMUX_UNUSED CYREG_CM0_ROM_DWT
 238:.\Generated_Source\PSoC4/cyfitter_cfg.c **** 
 239:.\Generated_Source\PSoC4/cyfitter_cfg.c **** 
 240:.\Generated_Source\PSoC4/cyfitter_cfg.c **** /*******************************************************************************
 241:.\Generated_Source\PSoC4/cyfitter_cfg.c **** * Function Name: cyfitter_cfg
 242:.\Generated_Source\PSoC4/cyfitter_cfg.c **** ********************************************************************************
 243:.\Generated_Source\PSoC4/cyfitter_cfg.c **** * Summary:
 244:.\Generated_Source\PSoC4/cyfitter_cfg.c **** *  This function is called by the start-up code for the selected device. It
 245:.\Generated_Source\PSoC4/cyfitter_cfg.c **** *  performs all of the necessary device configuration based on the design
 246:.\Generated_Source\PSoC4/cyfitter_cfg.c **** *  settings.  This includes settings from the Design Wide Resources (DWR) such
 247:.\Generated_Source\PSoC4/cyfitter_cfg.c **** *  as Clocks and Pins as well as any component configuration that is necessary.
 248:.\Generated_Source\PSoC4/cyfitter_cfg.c **** *
 249:.\Generated_Source\PSoC4/cyfitter_cfg.c **** * Parameters:  
 250:.\Generated_Source\PSoC4/cyfitter_cfg.c **** *   void
 251:.\Generated_Source\PSoC4/cyfitter_cfg.c **** *
 252:.\Generated_Source\PSoC4/cyfitter_cfg.c **** * Return:
 253:.\Generated_Source\PSoC4/cyfitter_cfg.c **** *   void
 254:.\Generated_Source\PSoC4/cyfitter_cfg.c **** *
 255:.\Generated_Source\PSoC4/cyfitter_cfg.c **** *******************************************************************************/
 256:.\Generated_Source\PSoC4/cyfitter_cfg.c **** CY_CFG_SECTION
 257:.\Generated_Source\PSoC4/cyfitter_cfg.c **** void cyfitter_cfg(void)
 258:.\Generated_Source\PSoC4/cyfitter_cfg.c **** {
 227              		.loc 1 258 0
 228              		.cfi_startproc
 229 0074 38B5     		push	{r3, r4, r5, lr}
 230              		.cfi_def_cfa_offset 16
 231              		.cfi_offset 3, -16
 232              		.cfi_offset 4, -12
 233              		.cfi_offset 5, -8
 234              		.cfi_offset 14, -4
 259:.\Generated_Source\PSoC4/cyfitter_cfg.c **** 	/* Disable interrupts by default. Let user enable if/when they want. */
 260:.\Generated_Source\PSoC4/cyfitter_cfg.c **** 	CyGlobalIntDisable;
 235              		.loc 1 260 0
 236              	@ 260 ".\Generated_Source\PSoC4\cyfitter_cfg.c" 1
 237 0076 72B6     		CPSID   i
 238              	@ 0 "" 2
 239              	.LVL20:
 240              		.code	16
 241              	.LBB3:
 261:.\Generated_Source\PSoC4/cyfitter_cfg.c **** 
 262:.\Generated_Source\PSoC4/cyfitter_cfg.c **** 	{
 263:.\Generated_Source\PSoC4/cyfitter_cfg.c **** 		static const uint32 CYCODE cy_cfg_addr_table[] = {
ARM GAS  C:\Users\Gary\AppData\Local\Temp\ccEjXQUu.s 			page 10


 264:.\Generated_Source\PSoC4/cyfitter_cfg.c **** 			0x400F0003u, /* Base address: 0x400F0000 Count: 3 */
 265:.\Generated_Source\PSoC4/cyfitter_cfg.c **** 			0x400F3011u, /* Base address: 0x400F3000 Count: 17 */
 266:.\Generated_Source\PSoC4/cyfitter_cfg.c **** 			0x400F3136u, /* Base address: 0x400F3100 Count: 54 */
 267:.\Generated_Source\PSoC4/cyfitter_cfg.c **** 			0x400F326Bu, /* Base address: 0x400F3200 Count: 107 */
 268:.\Generated_Source\PSoC4/cyfitter_cfg.c **** 			0x400F3347u, /* Base address: 0x400F3300 Count: 71 */
 269:.\Generated_Source\PSoC4/cyfitter_cfg.c **** 			0x400F4004u, /* Base address: 0x400F4000 Count: 4 */
 270:.\Generated_Source\PSoC4/cyfitter_cfg.c **** 			0x400F4103u, /* Base address: 0x400F4100 Count: 3 */
 271:.\Generated_Source\PSoC4/cyfitter_cfg.c **** 			0x400F6002u, /* Base address: 0x400F6000 Count: 2 */
 272:.\Generated_Source\PSoC4/cyfitter_cfg.c **** 		};
 273:.\Generated_Source\PSoC4/cyfitter_cfg.c **** 
 274:.\Generated_Source\PSoC4/cyfitter_cfg.c **** 		static const cy_cfg_addrvalue_t CYCODE cy_cfg_data_table[] = {
 275:.\Generated_Source\PSoC4/cyfitter_cfg.c **** 			{0x80u, 0x72u},
 276:.\Generated_Source\PSoC4/cyfitter_cfg.c **** 			{0x81u, 0x38u},
 277:.\Generated_Source\PSoC4/cyfitter_cfg.c **** 			{0x83u, 0x0Fu},
 278:.\Generated_Source\PSoC4/cyfitter_cfg.c **** 			{0x82u, 0x01u},
 279:.\Generated_Source\PSoC4/cyfitter_cfg.c **** 			{0x8Eu, 0x04u},
 280:.\Generated_Source\PSoC4/cyfitter_cfg.c **** 			{0x90u, 0x08u},
 281:.\Generated_Source\PSoC4/cyfitter_cfg.c **** 			{0x9Au, 0x02u},
 282:.\Generated_Source\PSoC4/cyfitter_cfg.c **** 			{0x9Eu, 0x01u},
 283:.\Generated_Source\PSoC4/cyfitter_cfg.c **** 			{0xA6u, 0x02u},
 284:.\Generated_Source\PSoC4/cyfitter_cfg.c **** 			{0xB0u, 0x01u},
 285:.\Generated_Source\PSoC4/cyfitter_cfg.c **** 			{0xB2u, 0x02u},
 286:.\Generated_Source\PSoC4/cyfitter_cfg.c **** 			{0xB4u, 0x04u},
 287:.\Generated_Source\PSoC4/cyfitter_cfg.c **** 			{0xB6u, 0x08u},
 288:.\Generated_Source\PSoC4/cyfitter_cfg.c **** 			{0xBBu, 0x02u},
 289:.\Generated_Source\PSoC4/cyfitter_cfg.c **** 			{0xBEu, 0x45u},
 290:.\Generated_Source\PSoC4/cyfitter_cfg.c **** 			{0xD4u, 0x18u},
 291:.\Generated_Source\PSoC4/cyfitter_cfg.c **** 			{0xD8u, 0x04u},
 292:.\Generated_Source\PSoC4/cyfitter_cfg.c **** 			{0xD9u, 0x04u},
 293:.\Generated_Source\PSoC4/cyfitter_cfg.c **** 			{0xDBu, 0x04u},
 294:.\Generated_Source\PSoC4/cyfitter_cfg.c **** 			{0xDFu, 0x01u},
 295:.\Generated_Source\PSoC4/cyfitter_cfg.c **** 			{0x02u, 0x01u},
 296:.\Generated_Source\PSoC4/cyfitter_cfg.c **** 			{0x03u, 0x68u},
 297:.\Generated_Source\PSoC4/cyfitter_cfg.c **** 			{0x04u, 0x02u},
 298:.\Generated_Source\PSoC4/cyfitter_cfg.c **** 			{0x06u, 0x01u},
 299:.\Generated_Source\PSoC4/cyfitter_cfg.c **** 			{0x08u, 0x80u},
 300:.\Generated_Source\PSoC4/cyfitter_cfg.c **** 			{0x09u, 0x01u},
 301:.\Generated_Source\PSoC4/cyfitter_cfg.c **** 			{0x0Au, 0x24u},
 302:.\Generated_Source\PSoC4/cyfitter_cfg.c **** 			{0x0Du, 0x22u},
 303:.\Generated_Source\PSoC4/cyfitter_cfg.c **** 			{0x0Eu, 0x01u},
 304:.\Generated_Source\PSoC4/cyfitter_cfg.c **** 			{0x10u, 0x80u},
 305:.\Generated_Source\PSoC4/cyfitter_cfg.c **** 			{0x13u, 0x60u},
 306:.\Generated_Source\PSoC4/cyfitter_cfg.c **** 			{0x15u, 0x08u},
 307:.\Generated_Source\PSoC4/cyfitter_cfg.c **** 			{0x19u, 0xA2u},
 308:.\Generated_Source\PSoC4/cyfitter_cfg.c **** 			{0x1Au, 0x01u},
 309:.\Generated_Source\PSoC4/cyfitter_cfg.c **** 			{0x1Bu, 0x08u},
 310:.\Generated_Source\PSoC4/cyfitter_cfg.c **** 			{0x1Du, 0x10u},
 311:.\Generated_Source\PSoC4/cyfitter_cfg.c **** 			{0x1Eu, 0x02u},
 312:.\Generated_Source\PSoC4/cyfitter_cfg.c **** 			{0x1Fu, 0x05u},
 313:.\Generated_Source\PSoC4/cyfitter_cfg.c **** 			{0x21u, 0x04u},
 314:.\Generated_Source\PSoC4/cyfitter_cfg.c **** 			{0x23u, 0x48u},
 315:.\Generated_Source\PSoC4/cyfitter_cfg.c **** 			{0x27u, 0x40u},
 316:.\Generated_Source\PSoC4/cyfitter_cfg.c **** 			{0x29u, 0x24u},
 317:.\Generated_Source\PSoC4/cyfitter_cfg.c **** 			{0x2Au, 0x01u},
 318:.\Generated_Source\PSoC4/cyfitter_cfg.c **** 			{0x31u, 0x10u},
 319:.\Generated_Source\PSoC4/cyfitter_cfg.c **** 			{0x33u, 0x4Au},
 320:.\Generated_Source\PSoC4/cyfitter_cfg.c **** 			{0x38u, 0x20u},
ARM GAS  C:\Users\Gary\AppData\Local\Temp\ccEjXQUu.s 			page 11


 321:.\Generated_Source\PSoC4/cyfitter_cfg.c **** 			{0x3Au, 0x02u},
 322:.\Generated_Source\PSoC4/cyfitter_cfg.c **** 			{0x3Bu, 0x40u},
 323:.\Generated_Source\PSoC4/cyfitter_cfg.c **** 			{0x40u, 0xD1u},
 324:.\Generated_Source\PSoC4/cyfitter_cfg.c **** 			{0x43u, 0x02u},
 325:.\Generated_Source\PSoC4/cyfitter_cfg.c **** 			{0x49u, 0xA0u},
 326:.\Generated_Source\PSoC4/cyfitter_cfg.c **** 			{0x50u, 0x01u},
 327:.\Generated_Source\PSoC4/cyfitter_cfg.c **** 			{0x51u, 0x20u},
 328:.\Generated_Source\PSoC4/cyfitter_cfg.c **** 			{0x5Bu, 0x08u},
 329:.\Generated_Source\PSoC4/cyfitter_cfg.c **** 			{0x5Du, 0x02u},
 330:.\Generated_Source\PSoC4/cyfitter_cfg.c **** 			{0x67u, 0x0Au},
 331:.\Generated_Source\PSoC4/cyfitter_cfg.c **** 			{0x69u, 0x14u},
 332:.\Generated_Source\PSoC4/cyfitter_cfg.c **** 			{0x6Au, 0x80u},
 333:.\Generated_Source\PSoC4/cyfitter_cfg.c **** 			{0x70u, 0x90u},
 334:.\Generated_Source\PSoC4/cyfitter_cfg.c **** 			{0x71u, 0x04u},
 335:.\Generated_Source\PSoC4/cyfitter_cfg.c **** 			{0x72u, 0x06u},
 336:.\Generated_Source\PSoC4/cyfitter_cfg.c **** 			{0x73u, 0x20u},
 337:.\Generated_Source\PSoC4/cyfitter_cfg.c **** 			{0x80u, 0x10u},
 338:.\Generated_Source\PSoC4/cyfitter_cfg.c **** 			{0x83u, 0x40u},
 339:.\Generated_Source\PSoC4/cyfitter_cfg.c **** 			{0xC0u, 0x9Fu},
 340:.\Generated_Source\PSoC4/cyfitter_cfg.c **** 			{0xC2u, 0xDFu},
 341:.\Generated_Source\PSoC4/cyfitter_cfg.c **** 			{0xC4u, 0x2Bu},
 342:.\Generated_Source\PSoC4/cyfitter_cfg.c **** 			{0xCAu, 0x07u},
 343:.\Generated_Source\PSoC4/cyfitter_cfg.c **** 			{0xCCu, 0x0Fu},
 344:.\Generated_Source\PSoC4/cyfitter_cfg.c **** 			{0xCEu, 0x0Du},
 345:.\Generated_Source\PSoC4/cyfitter_cfg.c **** 			{0xD0u, 0x0Bu},
 346:.\Generated_Source\PSoC4/cyfitter_cfg.c **** 			{0xD2u, 0x0Cu},
 347:.\Generated_Source\PSoC4/cyfitter_cfg.c **** 			{0xD6u, 0x82u},
 348:.\Generated_Source\PSoC4/cyfitter_cfg.c **** 			{0xD8u, 0x30u},
 349:.\Generated_Source\PSoC4/cyfitter_cfg.c **** 			{0x00u, 0x10u},
 350:.\Generated_Source\PSoC4/cyfitter_cfg.c **** 			{0x01u, 0x80u},
 351:.\Generated_Source\PSoC4/cyfitter_cfg.c **** 			{0x02u, 0xACu},
 352:.\Generated_Source\PSoC4/cyfitter_cfg.c **** 			{0x03u, 0x13u},
 353:.\Generated_Source\PSoC4/cyfitter_cfg.c **** 			{0x04u, 0x14u},
 354:.\Generated_Source\PSoC4/cyfitter_cfg.c **** 			{0x08u, 0xDCu},
 355:.\Generated_Source\PSoC4/cyfitter_cfg.c **** 			{0x0Au, 0x22u},
 356:.\Generated_Source\PSoC4/cyfitter_cfg.c **** 			{0x0Bu, 0x08u},
 357:.\Generated_Source\PSoC4/cyfitter_cfg.c **** 			{0x12u, 0x03u},
 358:.\Generated_Source\PSoC4/cyfitter_cfg.c **** 			{0x13u, 0x0Cu},
 359:.\Generated_Source\PSoC4/cyfitter_cfg.c **** 			{0x14u, 0x0Cu},
 360:.\Generated_Source\PSoC4/cyfitter_cfg.c **** 			{0x15u, 0x2Cu},
 361:.\Generated_Source\PSoC4/cyfitter_cfg.c **** 			{0x16u, 0x71u},
 362:.\Generated_Source\PSoC4/cyfitter_cfg.c **** 			{0x17u, 0x43u},
 363:.\Generated_Source\PSoC4/cyfitter_cfg.c **** 			{0x1Eu, 0x20u},
 364:.\Generated_Source\PSoC4/cyfitter_cfg.c **** 			{0x20u, 0x09u},
 365:.\Generated_Source\PSoC4/cyfitter_cfg.c **** 			{0x22u, 0xD0u},
 366:.\Generated_Source\PSoC4/cyfitter_cfg.c **** 			{0x24u, 0x10u},
 367:.\Generated_Source\PSoC4/cyfitter_cfg.c **** 			{0x26u, 0x40u},
 368:.\Generated_Source\PSoC4/cyfitter_cfg.c **** 			{0x29u, 0x71u},
 369:.\Generated_Source\PSoC4/cyfitter_cfg.c **** 			{0x2Bu, 0x0Eu},
 370:.\Generated_Source\PSoC4/cyfitter_cfg.c **** 			{0x2Du, 0x71u},
 371:.\Generated_Source\PSoC4/cyfitter_cfg.c **** 			{0x2Fu, 0x06u},
 372:.\Generated_Source\PSoC4/cyfitter_cfg.c **** 			{0x30u, 0x1Fu},
 373:.\Generated_Source\PSoC4/cyfitter_cfg.c **** 			{0x32u, 0xE0u},
 374:.\Generated_Source\PSoC4/cyfitter_cfg.c **** 			{0x33u, 0x30u},
 375:.\Generated_Source\PSoC4/cyfitter_cfg.c **** 			{0x35u, 0x0Fu},
 376:.\Generated_Source\PSoC4/cyfitter_cfg.c **** 			{0x37u, 0xC0u},
 377:.\Generated_Source\PSoC4/cyfitter_cfg.c **** 			{0x39u, 0x88u},
ARM GAS  C:\Users\Gary\AppData\Local\Temp\ccEjXQUu.s 			page 12


 378:.\Generated_Source\PSoC4/cyfitter_cfg.c **** 			{0x3Au, 0x08u},
 379:.\Generated_Source\PSoC4/cyfitter_cfg.c **** 			{0x3Bu, 0x20u},
 380:.\Generated_Source\PSoC4/cyfitter_cfg.c **** 			{0x3Fu, 0x04u},
 381:.\Generated_Source\PSoC4/cyfitter_cfg.c **** 			{0x40u, 0x02u},
 382:.\Generated_Source\PSoC4/cyfitter_cfg.c **** 			{0x46u, 0x40u},
 383:.\Generated_Source\PSoC4/cyfitter_cfg.c **** 			{0x49u, 0xFFu},
 384:.\Generated_Source\PSoC4/cyfitter_cfg.c **** 			{0x4Au, 0x07u},
 385:.\Generated_Source\PSoC4/cyfitter_cfg.c **** 			{0x4Bu, 0xFFu},
 386:.\Generated_Source\PSoC4/cyfitter_cfg.c **** 			{0x4Cu, 0x40u},
 387:.\Generated_Source\PSoC4/cyfitter_cfg.c **** 			{0x4Du, 0x20u},
 388:.\Generated_Source\PSoC4/cyfitter_cfg.c **** 			{0x4Eu, 0xF0u},
 389:.\Generated_Source\PSoC4/cyfitter_cfg.c **** 			{0x4Fu, 0x05u},
 390:.\Generated_Source\PSoC4/cyfitter_cfg.c **** 			{0x50u, 0x08u},
 391:.\Generated_Source\PSoC4/cyfitter_cfg.c **** 			{0x58u, 0x04u},
 392:.\Generated_Source\PSoC4/cyfitter_cfg.c **** 			{0x59u, 0x04u},
 393:.\Generated_Source\PSoC4/cyfitter_cfg.c **** 			{0x5Au, 0x04u},
 394:.\Generated_Source\PSoC4/cyfitter_cfg.c **** 			{0x5Fu, 0x01u},
 395:.\Generated_Source\PSoC4/cyfitter_cfg.c **** 			{0x60u, 0x40u},
 396:.\Generated_Source\PSoC4/cyfitter_cfg.c **** 			{0x61u, 0xA8u},
 397:.\Generated_Source\PSoC4/cyfitter_cfg.c **** 			{0x62u, 0x40u},
 398:.\Generated_Source\PSoC4/cyfitter_cfg.c **** 			{0x63u, 0x20u},
 399:.\Generated_Source\PSoC4/cyfitter_cfg.c **** 			{0x81u, 0x01u},
 400:.\Generated_Source\PSoC4/cyfitter_cfg.c **** 			{0x82u, 0x08u},
 401:.\Generated_Source\PSoC4/cyfitter_cfg.c **** 			{0x83u, 0x0Au},
 402:.\Generated_Source\PSoC4/cyfitter_cfg.c **** 			{0x84u, 0x0Au},
 403:.\Generated_Source\PSoC4/cyfitter_cfg.c **** 			{0x85u, 0x02u},
 404:.\Generated_Source\PSoC4/cyfitter_cfg.c **** 			{0x86u, 0x14u},
 405:.\Generated_Source\PSoC4/cyfitter_cfg.c **** 			{0x87u, 0x09u},
 406:.\Generated_Source\PSoC4/cyfitter_cfg.c **** 			{0x88u, 0x20u},
 407:.\Generated_Source\PSoC4/cyfitter_cfg.c **** 			{0x89u, 0x13u},
 408:.\Generated_Source\PSoC4/cyfitter_cfg.c **** 			{0x8Au, 0xC0u},
 409:.\Generated_Source\PSoC4/cyfitter_cfg.c **** 			{0x8Eu, 0x15u},
 410:.\Generated_Source\PSoC4/cyfitter_cfg.c **** 			{0x90u, 0x13u},
 411:.\Generated_Source\PSoC4/cyfitter_cfg.c **** 			{0x92u, 0x0Cu},
 412:.\Generated_Source\PSoC4/cyfitter_cfg.c **** 			{0x94u, 0x80u},
 413:.\Generated_Source\PSoC4/cyfitter_cfg.c **** 			{0x96u, 0x20u},
 414:.\Generated_Source\PSoC4/cyfitter_cfg.c **** 			{0x98u, 0x13u},
 415:.\Generated_Source\PSoC4/cyfitter_cfg.c **** 			{0x9Au, 0x04u},
 416:.\Generated_Source\PSoC4/cyfitter_cfg.c **** 			{0x9Du, 0x10u},
 417:.\Generated_Source\PSoC4/cyfitter_cfg.c **** 			{0xA0u, 0x03u},
 418:.\Generated_Source\PSoC4/cyfitter_cfg.c **** 			{0xA1u, 0x20u},
 419:.\Generated_Source\PSoC4/cyfitter_cfg.c **** 			{0xA2u, 0x14u},
 420:.\Generated_Source\PSoC4/cyfitter_cfg.c **** 			{0xA4u, 0xE0u},
 421:.\Generated_Source\PSoC4/cyfitter_cfg.c **** 			{0xA5u, 0x13u},
 422:.\Generated_Source\PSoC4/cyfitter_cfg.c **** 			{0xA8u, 0xE0u},
 423:.\Generated_Source\PSoC4/cyfitter_cfg.c **** 			{0xABu, 0x04u},
 424:.\Generated_Source\PSoC4/cyfitter_cfg.c **** 			{0xACu, 0x40u},
 425:.\Generated_Source\PSoC4/cyfitter_cfg.c **** 			{0xAEu, 0x20u},
 426:.\Generated_Source\PSoC4/cyfitter_cfg.c **** 			{0xB0u, 0x0Fu},
 427:.\Generated_Source\PSoC4/cyfitter_cfg.c **** 			{0xB1u, 0x10u},
 428:.\Generated_Source\PSoC4/cyfitter_cfg.c **** 			{0xB3u, 0x20u},
 429:.\Generated_Source\PSoC4/cyfitter_cfg.c **** 			{0xB4u, 0xE0u},
 430:.\Generated_Source\PSoC4/cyfitter_cfg.c **** 			{0xB5u, 0x03u},
 431:.\Generated_Source\PSoC4/cyfitter_cfg.c **** 			{0xB6u, 0x10u},
 432:.\Generated_Source\PSoC4/cyfitter_cfg.c **** 			{0xB7u, 0x0Cu},
 433:.\Generated_Source\PSoC4/cyfitter_cfg.c **** 			{0xBAu, 0x02u},
 434:.\Generated_Source\PSoC4/cyfitter_cfg.c **** 			{0xBEu, 0x40u},
ARM GAS  C:\Users\Gary\AppData\Local\Temp\ccEjXQUu.s 			page 13


 435:.\Generated_Source\PSoC4/cyfitter_cfg.c **** 			{0xBFu, 0x44u},
 436:.\Generated_Source\PSoC4/cyfitter_cfg.c **** 			{0xC0u, 0x54u},
 437:.\Generated_Source\PSoC4/cyfitter_cfg.c **** 			{0xC1u, 0x03u},
 438:.\Generated_Source\PSoC4/cyfitter_cfg.c **** 			{0xC5u, 0xEBu},
 439:.\Generated_Source\PSoC4/cyfitter_cfg.c **** 			{0xC6u, 0x0Cu},
 440:.\Generated_Source\PSoC4/cyfitter_cfg.c **** 			{0xC8u, 0x07u},
 441:.\Generated_Source\PSoC4/cyfitter_cfg.c **** 			{0xC9u, 0xFFu},
 442:.\Generated_Source\PSoC4/cyfitter_cfg.c **** 			{0xCAu, 0xFFu},
 443:.\Generated_Source\PSoC4/cyfitter_cfg.c **** 			{0xCBu, 0xFFu},
 444:.\Generated_Source\PSoC4/cyfitter_cfg.c **** 			{0xCEu, 0xF0u},
 445:.\Generated_Source\PSoC4/cyfitter_cfg.c **** 			{0xCFu, 0x44u},
 446:.\Generated_Source\PSoC4/cyfitter_cfg.c **** 			{0xD0u, 0x0Cu},
 447:.\Generated_Source\PSoC4/cyfitter_cfg.c **** 			{0xD4u, 0x01u},
 448:.\Generated_Source\PSoC4/cyfitter_cfg.c **** 			{0xD8u, 0x04u},
 449:.\Generated_Source\PSoC4/cyfitter_cfg.c **** 			{0xD9u, 0x04u},
 450:.\Generated_Source\PSoC4/cyfitter_cfg.c **** 			{0xDAu, 0x04u},
 451:.\Generated_Source\PSoC4/cyfitter_cfg.c **** 			{0xDBu, 0x04u},
 452:.\Generated_Source\PSoC4/cyfitter_cfg.c **** 			{0xDFu, 0x01u},
 453:.\Generated_Source\PSoC4/cyfitter_cfg.c **** 			{0xE6u, 0xC0u},
 454:.\Generated_Source\PSoC4/cyfitter_cfg.c **** 			{0xEAu, 0x40u},
 455:.\Generated_Source\PSoC4/cyfitter_cfg.c **** 			{0xEBu, 0x02u},
 456:.\Generated_Source\PSoC4/cyfitter_cfg.c **** 			{0x00u, 0x04u},
 457:.\Generated_Source\PSoC4/cyfitter_cfg.c **** 			{0x01u, 0x20u},
 458:.\Generated_Source\PSoC4/cyfitter_cfg.c **** 			{0x02u, 0x80u},
 459:.\Generated_Source\PSoC4/cyfitter_cfg.c **** 			{0x03u, 0x02u},
 460:.\Generated_Source\PSoC4/cyfitter_cfg.c **** 			{0x05u, 0x06u},
 461:.\Generated_Source\PSoC4/cyfitter_cfg.c **** 			{0x07u, 0x08u},
 462:.\Generated_Source\PSoC4/cyfitter_cfg.c **** 			{0x0Au, 0x60u},
 463:.\Generated_Source\PSoC4/cyfitter_cfg.c **** 			{0x0Bu, 0x08u},
 464:.\Generated_Source\PSoC4/cyfitter_cfg.c **** 			{0x0Du, 0x0Au},
 465:.\Generated_Source\PSoC4/cyfitter_cfg.c **** 			{0x0Fu, 0x02u},
 466:.\Generated_Source\PSoC4/cyfitter_cfg.c **** 			{0x10u, 0x90u},
 467:.\Generated_Source\PSoC4/cyfitter_cfg.c **** 			{0x11u, 0x14u},
 468:.\Generated_Source\PSoC4/cyfitter_cfg.c **** 			{0x12u, 0x01u},
 469:.\Generated_Source\PSoC4/cyfitter_cfg.c **** 			{0x16u, 0x10u},
 470:.\Generated_Source\PSoC4/cyfitter_cfg.c **** 			{0x17u, 0x01u},
 471:.\Generated_Source\PSoC4/cyfitter_cfg.c **** 			{0x19u, 0xA2u},
 472:.\Generated_Source\PSoC4/cyfitter_cfg.c **** 			{0x1Au, 0x40u},
 473:.\Generated_Source\PSoC4/cyfitter_cfg.c **** 			{0x1Bu, 0x20u},
 474:.\Generated_Source\PSoC4/cyfitter_cfg.c **** 			{0x1Du, 0x0Au},
 475:.\Generated_Source\PSoC4/cyfitter_cfg.c **** 			{0x1Fu, 0x0Cu},
 476:.\Generated_Source\PSoC4/cyfitter_cfg.c **** 			{0x20u, 0x41u},
 477:.\Generated_Source\PSoC4/cyfitter_cfg.c **** 			{0x22u, 0x14u},
 478:.\Generated_Source\PSoC4/cyfitter_cfg.c **** 			{0x23u, 0x04u},
 479:.\Generated_Source\PSoC4/cyfitter_cfg.c **** 			{0x24u, 0x04u},
 480:.\Generated_Source\PSoC4/cyfitter_cfg.c **** 			{0x26u, 0x80u},
 481:.\Generated_Source\PSoC4/cyfitter_cfg.c **** 			{0x27u, 0x29u},
 482:.\Generated_Source\PSoC4/cyfitter_cfg.c **** 			{0x28u, 0x10u},
 483:.\Generated_Source\PSoC4/cyfitter_cfg.c **** 			{0x29u, 0x21u},
 484:.\Generated_Source\PSoC4/cyfitter_cfg.c **** 			{0x2Cu, 0x02u},
 485:.\Generated_Source\PSoC4/cyfitter_cfg.c **** 			{0x2Eu, 0x40u},
 486:.\Generated_Source\PSoC4/cyfitter_cfg.c **** 			{0x2Fu, 0x08u},
 487:.\Generated_Source\PSoC4/cyfitter_cfg.c **** 			{0x32u, 0x40u},
 488:.\Generated_Source\PSoC4/cyfitter_cfg.c **** 			{0x37u, 0x09u},
 489:.\Generated_Source\PSoC4/cyfitter_cfg.c **** 			{0x39u, 0x10u},
 490:.\Generated_Source\PSoC4/cyfitter_cfg.c **** 			{0x3Au, 0x01u},
 491:.\Generated_Source\PSoC4/cyfitter_cfg.c **** 			{0x3Bu, 0x04u},
ARM GAS  C:\Users\Gary\AppData\Local\Temp\ccEjXQUu.s 			page 14


 492:.\Generated_Source\PSoC4/cyfitter_cfg.c **** 			{0x3Cu, 0x20u},
 493:.\Generated_Source\PSoC4/cyfitter_cfg.c **** 			{0x3Fu, 0x02u},
 494:.\Generated_Source\PSoC4/cyfitter_cfg.c **** 			{0x43u, 0x0Au},
 495:.\Generated_Source\PSoC4/cyfitter_cfg.c **** 			{0x47u, 0x20u},
 496:.\Generated_Source\PSoC4/cyfitter_cfg.c **** 			{0x48u, 0x02u},
 497:.\Generated_Source\PSoC4/cyfitter_cfg.c **** 			{0x49u, 0x05u},
 498:.\Generated_Source\PSoC4/cyfitter_cfg.c **** 			{0x50u, 0x80u},
 499:.\Generated_Source\PSoC4/cyfitter_cfg.c **** 			{0x54u, 0x10u},
 500:.\Generated_Source\PSoC4/cyfitter_cfg.c **** 			{0x56u, 0x10u},
 501:.\Generated_Source\PSoC4/cyfitter_cfg.c **** 			{0x57u, 0x03u},
 502:.\Generated_Source\PSoC4/cyfitter_cfg.c **** 			{0x59u, 0x81u},
 503:.\Generated_Source\PSoC4/cyfitter_cfg.c **** 			{0x5Au, 0x08u},
 504:.\Generated_Source\PSoC4/cyfitter_cfg.c **** 			{0x5Bu, 0x10u},
 505:.\Generated_Source\PSoC4/cyfitter_cfg.c **** 			{0x8Cu, 0x80u},
 506:.\Generated_Source\PSoC4/cyfitter_cfg.c **** 			{0x8Fu, 0x10u},
 507:.\Generated_Source\PSoC4/cyfitter_cfg.c **** 			{0x91u, 0x14u},
 508:.\Generated_Source\PSoC4/cyfitter_cfg.c **** 			{0x92u, 0x80u},
 509:.\Generated_Source\PSoC4/cyfitter_cfg.c **** 			{0x94u, 0x41u},
 510:.\Generated_Source\PSoC4/cyfitter_cfg.c **** 			{0x96u, 0x20u},
 511:.\Generated_Source\PSoC4/cyfitter_cfg.c **** 			{0x9Au, 0x01u},
 512:.\Generated_Source\PSoC4/cyfitter_cfg.c **** 			{0xA5u, 0x02u},
 513:.\Generated_Source\PSoC4/cyfitter_cfg.c **** 			{0xA7u, 0x20u},
 514:.\Generated_Source\PSoC4/cyfitter_cfg.c **** 			{0xA9u, 0x21u},
 515:.\Generated_Source\PSoC4/cyfitter_cfg.c **** 			{0xAAu, 0x01u},
 516:.\Generated_Source\PSoC4/cyfitter_cfg.c **** 			{0xB6u, 0x01u},
 517:.\Generated_Source\PSoC4/cyfitter_cfg.c **** 			{0xC0u, 0x7Fu},
 518:.\Generated_Source\PSoC4/cyfitter_cfg.c **** 			{0xC2u, 0xBEu},
 519:.\Generated_Source\PSoC4/cyfitter_cfg.c **** 			{0xC4u, 0x3Fu},
 520:.\Generated_Source\PSoC4/cyfitter_cfg.c **** 			{0xCAu, 0x37u},
 521:.\Generated_Source\PSoC4/cyfitter_cfg.c **** 			{0xCCu, 0xC8u},
 522:.\Generated_Source\PSoC4/cyfitter_cfg.c **** 			{0xCEu, 0xA7u},
 523:.\Generated_Source\PSoC4/cyfitter_cfg.c **** 			{0xD0u, 0x23u},
 524:.\Generated_Source\PSoC4/cyfitter_cfg.c **** 			{0xD2u, 0x08u},
 525:.\Generated_Source\PSoC4/cyfitter_cfg.c **** 			{0xD6u, 0x0Fu},
 526:.\Generated_Source\PSoC4/cyfitter_cfg.c **** 			{0xEAu, 0x10u},
 527:.\Generated_Source\PSoC4/cyfitter_cfg.c **** 			{0x0Au, 0x40u},
 528:.\Generated_Source\PSoC4/cyfitter_cfg.c **** 			{0x5Fu, 0x02u},
 529:.\Generated_Source\PSoC4/cyfitter_cfg.c **** 			{0xC2u, 0x10u},
 530:.\Generated_Source\PSoC4/cyfitter_cfg.c **** 			{0xD6u, 0x80u},
 531:.\Generated_Source\PSoC4/cyfitter_cfg.c **** 			{0xAAu, 0x40u},
 532:.\Generated_Source\PSoC4/cyfitter_cfg.c **** 			{0xB7u, 0x02u},
 533:.\Generated_Source\PSoC4/cyfitter_cfg.c **** 			{0xE8u, 0x20u},
 534:.\Generated_Source\PSoC4/cyfitter_cfg.c **** 			{0x10u, 0x01u},
 535:.\Generated_Source\PSoC4/cyfitter_cfg.c **** 			{0x11u, 0x01u},
 536:.\Generated_Source\PSoC4/cyfitter_cfg.c **** 		};
 537:.\Generated_Source\PSoC4/cyfitter_cfg.c **** 
 538:.\Generated_Source\PSoC4/cyfitter_cfg.c **** 
 539:.\Generated_Source\PSoC4/cyfitter_cfg.c **** 
 540:.\Generated_Source\PSoC4/cyfitter_cfg.c **** 		CYPACKED typedef struct {
 541:.\Generated_Source\PSoC4/cyfitter_cfg.c **** 			void CYFAR *address;
 542:.\Generated_Source\PSoC4/cyfitter_cfg.c **** 			uint16 size;
 543:.\Generated_Source\PSoC4/cyfitter_cfg.c **** 		} CYPACKED_ATTR cfg_memset_t;
 544:.\Generated_Source\PSoC4/cyfitter_cfg.c **** 
 545:.\Generated_Source\PSoC4/cyfitter_cfg.c **** 
 546:.\Generated_Source\PSoC4/cyfitter_cfg.c **** 		CYPACKED typedef struct {
 547:.\Generated_Source\PSoC4/cyfitter_cfg.c **** 			void CYFAR *dest;
 548:.\Generated_Source\PSoC4/cyfitter_cfg.c **** 			const void CYCODE *src;
ARM GAS  C:\Users\Gary\AppData\Local\Temp\ccEjXQUu.s 			page 15


 549:.\Generated_Source\PSoC4/cyfitter_cfg.c **** 			uint16 size;
 550:.\Generated_Source\PSoC4/cyfitter_cfg.c **** 		} CYPACKED_ATTR cfg_memcpy_t;
 551:.\Generated_Source\PSoC4/cyfitter_cfg.c **** 
 552:.\Generated_Source\PSoC4/cyfitter_cfg.c **** 		static const cfg_memset_t CYCODE cfg_memset_list [] = {
 553:.\Generated_Source\PSoC4/cyfitter_cfg.c **** 			/* address, size */
 554:.\Generated_Source\PSoC4/cyfitter_cfg.c **** 			{(void CYFAR *)(CYDEV_UDB_P0_U1_BASE), 896u},
 555:.\Generated_Source\PSoC4/cyfitter_cfg.c **** 			{(void CYFAR *)(CYDEV_UDB_DSI0_BASE), 1024u},
 556:.\Generated_Source\PSoC4/cyfitter_cfg.c **** 		};
 557:.\Generated_Source\PSoC4/cyfitter_cfg.c **** 
 558:.\Generated_Source\PSoC4/cyfitter_cfg.c **** 		/* UDB_0_1_0_CONFIG Address: CYDEV_UDB_P0_U0_BASE Size (bytes): 128 */
 559:.\Generated_Source\PSoC4/cyfitter_cfg.c **** 		static const uint8 CYCODE BS_UDB_0_1_0_CONFIG_VAL[] = {
 560:.\Generated_Source\PSoC4/cyfitter_cfg.c **** 			0xFFu, 0x10u, 0x00u, 0x00u, 0xC3u, 0x00u, 0x00u, 0x00u, 0x0Fu, 0x08u, 0xF0u, 0x00u, 0x41u, 0x3Cu
 561:.\Generated_Source\PSoC4/cyfitter_cfg.c **** 			0xF3u, 0x00u, 0x0Cu, 0x03u, 0x82u, 0x3Cu, 0x00u, 0x41u, 0x04u, 0x00u, 0x00u, 0x04u, 0x00u, 0x7Fu
 562:.\Generated_Source\PSoC4/cyfitter_cfg.c **** 			0x08u, 0x04u, 0x00u, 0x00u, 0x00u, 0x18u, 0x00u, 0x00u, 0x0Cu, 0x67u, 0x00u, 0x18u, 0x1Cu, 0x00u
 563:.\Generated_Source\PSoC4/cyfitter_cfg.c **** 			0xC0u, 0x1Fu, 0x2Cu, 0x40u, 0x0Fu, 0x20u, 0x1Cu, 0x00u, 0x00u, 0x08u, 0x28u, 0x02u, 0x00u, 0x00u
 564:.\Generated_Source\PSoC4/cyfitter_cfg.c **** 			0x64u, 0x03u, 0x05u, 0x00u, 0x01u, 0x00u, 0xE0u, 0xC0u, 0x28u, 0xFFu, 0xFFu, 0xFFu, 0x62u, 0xA0u
 565:.\Generated_Source\PSoC4/cyfitter_cfg.c **** 			0x0Cu, 0x00u, 0x00u, 0x00u, 0x00u, 0x00u, 0x02u, 0x12u, 0x04u, 0x04u, 0x04u, 0x04u, 0x00u, 0x00u
 566:.\Generated_Source\PSoC4/cyfitter_cfg.c **** 			0x00u, 0x00u, 0x00u, 0x00u, 0x00u, 0x00u, 0x40u, 0x02u, 0x00u, 0x10u, 0x30u, 0x10u, 0x00u, 0x10u
 567:.\Generated_Source\PSoC4/cyfitter_cfg.c **** 			0x00u, 0x00u, 0x00u, 0x00u, 0x00u, 0x00u, 0x00u, 0x00u, 0x00u, 0x00u, 0x00u, 0x00u, 0x00u, 0x00u
 568:.\Generated_Source\PSoC4/cyfitter_cfg.c **** 
 569:.\Generated_Source\PSoC4/cyfitter_cfg.c **** 		static const cfg_memcpy_t CYCODE cfg_memcpy_list [] = {
 570:.\Generated_Source\PSoC4/cyfitter_cfg.c **** 			/* dest, src, size */
 571:.\Generated_Source\PSoC4/cyfitter_cfg.c **** 			{(void CYFAR *)(CYDEV_UDB_P0_U0_BASE), BS_UDB_0_1_0_CONFIG_VAL, 128u},
 572:.\Generated_Source\PSoC4/cyfitter_cfg.c **** 		};
 573:.\Generated_Source\PSoC4/cyfitter_cfg.c **** 
 574:.\Generated_Source\PSoC4/cyfitter_cfg.c **** 		uint8 CYDATA i;
 575:.\Generated_Source\PSoC4/cyfitter_cfg.c **** 
 576:.\Generated_Source\PSoC4/cyfitter_cfg.c **** 		/* Zero out critical memory blocks before beginning configuration */
 577:.\Generated_Source\PSoC4/cyfitter_cfg.c **** 		for (i = 0u; i < (sizeof(cfg_memset_list)/sizeof(cfg_memset_list[0])); i++)
 242              		.loc 1 577 0
 243 0078 0024     		mov	r4, #0
 244 007a 10E0     		b	.L12
 245              	.LVL21:
 246              	.L13:
 247              	.LBB4:
 578:.\Generated_Source\PSoC4/cyfitter_cfg.c **** 		{
 579:.\Generated_Source\PSoC4/cyfitter_cfg.c **** 			const cfg_memset_t CYCODE * CYDATA ms = &cfg_memset_list[i];
 580:.\Generated_Source\PSoC4/cyfitter_cfg.c **** 			CYMEMZERO(ms->address, (size_t)(uint32)(ms->size));
 248              		.loc 1 580 0 discriminator 3
 249 007c 3548     		ldr	r0, .L16
 250 007e 6300     		lsl	r3, r4, #1
 251 0080 1A19     		add	r2, r3, r4
 252 0082 5200     		lsl	r2, r2, #1
 253 0084 8218     		add	r2, r0, r2
 254 0086 9188     		ldrh	r1, [r2, #4]
 255 0088 1B19     		add	r3, r3, r4
 256 008a 5B00     		lsl	r3, r3, #1
 257 008c 1A5A     		ldrh	r2, [r3, r0]
 258 008e C318     		add	r3, r0, r3
 259 0090 5888     		ldrh	r0, [r3, #2]
 260 0092 0004     		lsl	r0, r0, #16
 261 0094 1043     		orr	r0, r2
 262 0096 FFF7FEFF 		bl	CYMEMZERO
 263              	.LVL22:
 264              	.LBE4:
 577:.\Generated_Source\PSoC4/cyfitter_cfg.c **** 		{
 265              		.loc 1 577 0 discriminator 3
ARM GAS  C:\Users\Gary\AppData\Local\Temp\ccEjXQUu.s 			page 16


 266 009a 0134     		add	r4, r4, #1
 267              	.LVL23:
 268 009c E4B2     		uxtb	r4, r4
 269              	.LVL24:
 270              	.L12:
 577:.\Generated_Source\PSoC4/cyfitter_cfg.c **** 		{
 271              		.loc 1 577 0 is_stmt 0 discriminator 1
 272 009e 012C     		cmp	r4, #1
 273 00a0 ECD9     		bls	.L13
 274 00a2 0024     		mov	r4, #0
 275              	.LVL25:
 276 00a4 12E0     		b	.L14
 277              	.LVL26:
 278              	.L15:
 279              	.LBB5:
 581:.\Generated_Source\PSoC4/cyfitter_cfg.c **** 		}
 582:.\Generated_Source\PSoC4/cyfitter_cfg.c **** 
 583:.\Generated_Source\PSoC4/cyfitter_cfg.c **** 		/* Copy device configuration data into registers */
 584:.\Generated_Source\PSoC4/cyfitter_cfg.c **** 		for (i = 0u; i < (sizeof(cfg_memcpy_list)/sizeof(cfg_memcpy_list[0])); i++)
 585:.\Generated_Source\PSoC4/cyfitter_cfg.c **** 		{
 586:.\Generated_Source\PSoC4/cyfitter_cfg.c **** 			const cfg_memcpy_t CYCODE * CYDATA mc = &cfg_memcpy_list[i];
 587:.\Generated_Source\PSoC4/cyfitter_cfg.c **** 			void * CYDATA destPtr = mc->dest;
 280              		.loc 1 587 0 is_stmt 1 discriminator 3
 281 00a6 2B4D     		ldr	r5, .L16
 282 00a8 A300     		lsl	r3, r4, #2
 283 00aa 1A19     		add	r2, r3, r4
 284 00ac 5200     		lsl	r2, r2, #1
 285 00ae AA18     		add	r2, r5, r2
 286 00b0 9189     		ldrh	r1, [r2, #12]
 287 00b2 D089     		ldrh	r0, [r2, #14]
 288 00b4 0004     		lsl	r0, r0, #16
 289 00b6 0843     		orr	r0, r1
 290              	.LVL27:
 588:.\Generated_Source\PSoC4/cyfitter_cfg.c **** 			const void CYCODE * CYDATA srcPtr = mc->src;
 291              		.loc 1 588 0 discriminator 3
 292 00b8 131C     		mov	r3, r2
 293 00ba 128A     		ldrh	r2, [r2, #16]
 294 00bc 598A     		ldrh	r1, [r3, #18]
 295 00be 0904     		lsl	r1, r1, #16
 296 00c0 1143     		orr	r1, r2
 297              	.LVL28:
 589:.\Generated_Source\PSoC4/cyfitter_cfg.c **** 			uint16 CYDATA numBytes = mc->size;
 590:.\Generated_Source\PSoC4/cyfitter_cfg.c **** 			CYCONFIGCPYCODE(destPtr, srcPtr, numBytes);
 298              		.loc 1 590 0 discriminator 3
 299 00c2 8022     		mov	r2, #128
 300 00c4 FFF7FEFF 		bl	CYCONFIGCPYCODE
 301              	.LVL29:
 302              	.LBE5:
 584:.\Generated_Source\PSoC4/cyfitter_cfg.c **** 		{
 303              		.loc 1 584 0 discriminator 3
 304 00c8 0134     		add	r4, r4, #1
 305              	.LVL30:
 306 00ca E4B2     		uxtb	r4, r4
 307              	.LVL31:
 308              	.L14:
 584:.\Generated_Source\PSoC4/cyfitter_cfg.c **** 		{
 309              		.loc 1 584 0 is_stmt 0 discriminator 1
ARM GAS  C:\Users\Gary\AppData\Local\Temp\ccEjXQUu.s 			page 17


 310 00cc 002C     		cmp	r4, #0
 311 00ce EAD0     		beq	.L15
 591:.\Generated_Source\PSoC4/cyfitter_cfg.c **** 		}
 592:.\Generated_Source\PSoC4/cyfitter_cfg.c **** 
 593:.\Generated_Source\PSoC4/cyfitter_cfg.c **** 		cfg_write_bytes32(cy_cfg_addr_table, cy_cfg_data_table);
 312              		.loc 1 593 0 is_stmt 1
 313 00d0 2049     		ldr	r1, .L16
 314 00d2 081C     		mov	r0, r1
 315 00d4 1830     		add	r0, r0, #24
 316 00d6 3831     		add	r1, r1, #56
 317 00d8 FFF7FEFF 		bl	cfg_write_bytes32
 318              	.LVL32:
 594:.\Generated_Source\PSoC4/cyfitter_cfg.c **** 
 595:.\Generated_Source\PSoC4/cyfitter_cfg.c **** 		/* Perform normal device configuration. Order is not critical for these items. */
 596:.\Generated_Source\PSoC4/cyfitter_cfg.c **** 		CY_SET_XTND_REG16((void CYFAR *)(CYREG_UDB_BCTL0_DRV), 0x0100u);
 319              		.loc 1 596 0
 320 00dc 8022     		mov	r2, #128
 321 00de 5200     		lsl	r2, r2, #1
 322 00e0 1D4B     		ldr	r3, .L16+4
 323 00e2 1A80     		strh	r2, [r3]
 597:.\Generated_Source\PSoC4/cyfitter_cfg.c **** 		CY_SET_XTND_REG8((void CYFAR *)(CYREG_UDB_BCTL0_DRV + 0x2u), 0x01u);
 324              		.loc 1 597 0
 325 00e4 FF3A     		sub	r2, r2, #255
 326 00e6 1D4B     		ldr	r3, .L16+8
 327 00e8 1A70     		strb	r2, [r3]
 598:.\Generated_Source\PSoC4/cyfitter_cfg.c **** 
 599:.\Generated_Source\PSoC4/cyfitter_cfg.c **** 		/* HSIOM Starting address: CYDEV_HSIOM_BASE */
 600:.\Generated_Source\PSoC4/cyfitter_cfg.c **** 		CY_SET_XTND_REG32((void CYFAR *)(CYDEV_HSIOM_BASE), 0x00300000u);
 328              		.loc 1 600 0
 329 00ea C022     		mov	r2, #192
 330 00ec 9203     		lsl	r2, r2, #14
 331 00ee 1C4B     		ldr	r3, .L16+12
 332 00f0 1A60     		str	r2, [r3]
 601:.\Generated_Source\PSoC4/cyfitter_cfg.c **** 		CY_SET_XTND_REG32((void CYFAR *)(CYREG_HSIOM_PORT_SEL3), 0x0000EE00u);
 333              		.loc 1 601 0
 334 00f2 EE22     		mov	r2, #238
 335 00f4 1202     		lsl	r2, r2, #8
 336 00f6 1B4B     		ldr	r3, .L16+16
 337 00f8 1A60     		str	r2, [r3]
 602:.\Generated_Source\PSoC4/cyfitter_cfg.c **** 
 603:.\Generated_Source\PSoC4/cyfitter_cfg.c **** 		/* UDB_PA_0 Starting address: CYDEV_UDB_PA0_BASE */
 604:.\Generated_Source\PSoC4/cyfitter_cfg.c **** 		CY_SET_XTND_REG32((void CYFAR *)(CYDEV_UDB_PA0_BASE), 0x00990004u);
 338              		.loc 1 604 0
 339 00fa 1B4A     		ldr	r2, .L16+20
 340 00fc 1B4B     		ldr	r3, .L16+24
 341 00fe 1A60     		str	r2, [r3]
 605:.\Generated_Source\PSoC4/cyfitter_cfg.c **** 		CY_SET_XTND_REG32((void CYFAR *)(CYREG_UDB_PA0_CFG4), 0x02000000u);
 342              		.loc 1 605 0
 343 0100 8022     		mov	r2, #128
 344 0102 9204     		lsl	r2, r2, #18
 345 0104 1A4B     		ldr	r3, .L16+28
 346 0106 1A60     		str	r2, [r3]
 606:.\Generated_Source\PSoC4/cyfitter_cfg.c **** 		CY_SET_XTND_REG32((void CYFAR *)(CYREG_UDB_PA0_CFG8), 0x04000000u);
 347              		.loc 1 606 0
 348 0108 8022     		mov	r2, #128
 349 010a D204     		lsl	r2, r2, #19
 350 010c 194B     		ldr	r3, .L16+32
ARM GAS  C:\Users\Gary\AppData\Local\Temp\ccEjXQUu.s 			page 18


 351 010e 1A60     		str	r2, [r3]
 607:.\Generated_Source\PSoC4/cyfitter_cfg.c **** 
 608:.\Generated_Source\PSoC4/cyfitter_cfg.c **** 		/* UDB_PA_3 Starting address: CYDEV_UDB_PA3_BASE */
 609:.\Generated_Source\PSoC4/cyfitter_cfg.c **** 		CY_SET_XTND_REG32((void CYFAR *)(CYDEV_UDB_PA3_BASE), 0x00990000u);
 352              		.loc 1 609 0
 353 0110 9922     		mov	r2, #153
 354 0112 1204     		lsl	r2, r2, #16
 355 0114 184B     		ldr	r3, .L16+36
 356 0116 1A60     		str	r2, [r3]
 610:.\Generated_Source\PSoC4/cyfitter_cfg.c **** 
 611:.\Generated_Source\PSoC4/cyfitter_cfg.c **** 		/* Enable digital routing */
 612:.\Generated_Source\PSoC4/cyfitter_cfg.c **** 		CY_SET_XTND_REG8((void *)CYREG_UDB_UDBIF_BANK_CTL, CY_GET_XTND_REG8((void *)CYREG_UDB_UDBIF_BANK_
 357              		.loc 1 612 0
 358 0118 184B     		ldr	r3, .L16+40
 359 011a 1978     		ldrb	r1, [r3]
 360 011c 0222     		mov	r2, #2
 361 011e 0A43     		orr	r2, r1
 362 0120 1A70     		strb	r2, [r3]
 613:.\Generated_Source\PSoC4/cyfitter_cfg.c **** 
 614:.\Generated_Source\PSoC4/cyfitter_cfg.c **** 		/* Enable UDB array */
 615:.\Generated_Source\PSoC4/cyfitter_cfg.c **** 		CY_SET_XTND_REG8((void *)CYREG_UDB_UDBIF_WAIT_CFG, (uint8)((CY_GET_XTND_REG8((void *)CYREG_UDB_UD
 363              		.loc 1 615 0
 364 0122 1748     		ldr	r0, .L16+44
 365 0124 0278     		ldrb	r2, [r0]
 366 0126 3C21     		mov	r1, #60
 367 0128 8A43     		bic	r2, r1
 368 012a 2839     		sub	r1, r1, #40
 369 012c 0A43     		orr	r2, r1
 370 012e 0270     		strb	r2, [r0]
 616:.\Generated_Source\PSoC4/cyfitter_cfg.c **** 		CY_SET_XTND_REG8((void *)CYREG_UDB_UDBIF_BANK_CTL, (uint8)(CY_GET_XTND_REG8((void *)CYREG_UDB_UDB
 371              		.loc 1 616 0
 372 0130 1978     		ldrb	r1, [r3]
 373 0132 1622     		mov	r2, #22
 374 0134 0A43     		orr	r2, r1
 375 0136 1A70     		strb	r2, [r3]
 376              	.LBE3:
 617:.\Generated_Source\PSoC4/cyfitter_cfg.c **** 	}
 618:.\Generated_Source\PSoC4/cyfitter_cfg.c **** 
 619:.\Generated_Source\PSoC4/cyfitter_cfg.c **** 	/* Perform second pass device configuration. These items must be configured in specific order afte
 620:.\Generated_Source\PSoC4/cyfitter_cfg.c **** 	/* IOPINS0_0 Starting address: CYDEV_PRT0_BASE */
 621:.\Generated_Source\PSoC4/cyfitter_cfg.c **** 	CY_SET_XTND_REG32((void CYFAR *)(CYDEV_PRT0_BASE), 0x00000020u);
 377              		.loc 1 621 0
 378 0138 2022     		mov	r2, #32
 379 013a 124B     		ldr	r3, .L16+48
 380 013c 1A60     		str	r2, [r3]
 622:.\Generated_Source\PSoC4/cyfitter_cfg.c **** 	CY_SET_XTND_REG32((void CYFAR *)(CYREG_PRT0_PC), 0x00031000u);
 381              		.loc 1 622 0
 382 013e C422     		mov	r2, #196
 383 0140 9202     		lsl	r2, r2, #10
 384 0142 114B     		ldr	r3, .L16+52
 385 0144 1A60     		str	r2, [r3]
 623:.\Generated_Source\PSoC4/cyfitter_cfg.c **** 
 624:.\Generated_Source\PSoC4/cyfitter_cfg.c **** 	/* IOPINS0_3 Starting address: CYDEV_PRT3_BASE */
 625:.\Generated_Source\PSoC4/cyfitter_cfg.c **** 	CY_SET_XTND_REG32((void CYFAR *)(CYREG_PRT3_PC), 0x00000D80u);
 386              		.loc 1 625 0
 387 0146 D822     		mov	r2, #216
 388 0148 1201     		lsl	r2, r2, #4
ARM GAS  C:\Users\Gary\AppData\Local\Temp\ccEjXQUu.s 			page 19


 389 014a 104B     		ldr	r3, .L16+56
 390 014c 1A60     		str	r2, [r3]
 626:.\Generated_Source\PSoC4/cyfitter_cfg.c **** 
 627:.\Generated_Source\PSoC4/cyfitter_cfg.c **** 	/* Setup clocks based on selections from Clock DWR */
 628:.\Generated_Source\PSoC4/cyfitter_cfg.c **** 	ClockSetup();
 391              		.loc 1 628 0
 392 014e FFF757FF 		bl	ClockSetup
 393              	.LVL33:
 629:.\Generated_Source\PSoC4/cyfitter_cfg.c **** 
 630:.\Generated_Source\PSoC4/cyfitter_cfg.c **** 	/* Perform basic analog initialization to defaults */
 631:.\Generated_Source\PSoC4/cyfitter_cfg.c **** 	AnalogSetDefault();
 632:.\Generated_Source\PSoC4/cyfitter_cfg.c **** 
 633:.\Generated_Source\PSoC4/cyfitter_cfg.c **** }
 394              		.loc 1 633 0
 395              		@ sp needed
 396              	.LVL34:
 397 0152 38BD     		pop	{r3, r4, r5, pc}
 398              	.L17:
 399              		.align	2
 400              	.L16:
 401 0154 00000000 		.word	.LANCHOR0
 402 0158 00600F40 		.word	1074749440
 403 015c 02600F40 		.word	1074749442
 404 0160 00000140 		.word	1073807360
 405 0164 0C000140 		.word	1073807372
 406 0168 04009900 		.word	10027012
 407 016c 00500F40 		.word	1074745344
 408 0170 04500F40 		.word	1074745348
 409 0174 08500F40 		.word	1074745352
 410 0178 30500F40 		.word	1074745392
 411 017c 00700F40 		.word	1074753536
 412 0180 01700F40 		.word	1074753537
 413 0184 00000440 		.word	1074003968
 414 0188 08000440 		.word	1074003976
 415 018c 08030440 		.word	1074004744
 416              		.cfi_endproc
 417              	.LFE6:
 418              		.size	cyfitter_cfg, .-cyfitter_cfg
 419              		.section	.rodata
 420              		.align	2
 421              		.set	.LANCHOR0,. + 0
 422              		.type	cfg_memset_list.4742, %object
 423              		.size	cfg_memset_list.4742, 12
 424              	cfg_memset_list.4742:
 425 0000 80300F40 		.word	1074737280
 426 0004 8003     		.short	896
 427 0006 00400F40 		.4byte	1074741248
 428 000a 0004     		.short	1024
 429              		.type	cfg_memcpy_list.4744, %object
 430              		.size	cfg_memcpy_list.4744, 10
 431              	cfg_memcpy_list.4744:
 432 000c 00300F40 		.word	1074737152
 433 0010 44020000 		.word	BS_UDB_0_1_0_CONFIG_VAL.4743
 434 0014 8000     		.short	128
 435 0016 0000     		.space	2
 436              		.type	cy_cfg_addr_table.4731, %object
 437              		.size	cy_cfg_addr_table.4731, 32
ARM GAS  C:\Users\Gary\AppData\Local\Temp\ccEjXQUu.s 			page 20


 438              	cy_cfg_addr_table.4731:
 439 0018 03000F40 		.word	1074724867
 440 001c 11300F40 		.word	1074737169
 441 0020 36310F40 		.word	1074737462
 442 0024 6B320F40 		.word	1074737771
 443 0028 47330F40 		.word	1074737991
 444 002c 04400F40 		.word	1074741252
 445 0030 03410F40 		.word	1074741507
 446 0034 02600F40 		.word	1074749442
 447              		.type	cy_cfg_data_table.4732, %object
 448              		.size	cy_cfg_data_table.4732, 522
 449              	cy_cfg_data_table.4732:
 450 0038 80       		.byte	-128
 451 0039 72       		.byte	114
 452 003a 81       		.byte	-127
 453 003b 38       		.byte	56
 454 003c 83       		.byte	-125
 455 003d 0F       		.byte	15
 456 003e 82       		.byte	-126
 457 003f 01       		.byte	1
 458 0040 8E       		.byte	-114
 459 0041 04       		.byte	4
 460 0042 90       		.byte	-112
 461 0043 08       		.byte	8
 462 0044 9A       		.byte	-102
 463 0045 02       		.byte	2
 464 0046 9E       		.byte	-98
 465 0047 01       		.byte	1
 466 0048 A6       		.byte	-90
 467 0049 02       		.byte	2
 468 004a B0       		.byte	-80
 469 004b 01       		.byte	1
 470 004c B2       		.byte	-78
 471 004d 02       		.byte	2
 472 004e B4       		.byte	-76
 473 004f 04       		.byte	4
 474 0050 B6       		.byte	-74
 475 0051 08       		.byte	8
 476 0052 BB       		.byte	-69
 477 0053 02       		.byte	2
 478 0054 BE       		.byte	-66
 479 0055 45       		.byte	69
 480 0056 D4       		.byte	-44
 481 0057 18       		.byte	24
 482 0058 D8       		.byte	-40
 483 0059 04       		.byte	4
 484 005a D9       		.byte	-39
 485 005b 04       		.byte	4
 486 005c DB       		.byte	-37
 487 005d 04       		.byte	4
 488 005e DF       		.byte	-33
 489 005f 01       		.byte	1
 490 0060 02       		.byte	2
 491 0061 01       		.byte	1
 492 0062 03       		.byte	3
 493 0063 68       		.byte	104
 494 0064 04       		.byte	4
ARM GAS  C:\Users\Gary\AppData\Local\Temp\ccEjXQUu.s 			page 21


 495 0065 02       		.byte	2
 496 0066 06       		.byte	6
 497 0067 01       		.byte	1
 498 0068 08       		.byte	8
 499 0069 80       		.byte	-128
 500 006a 09       		.byte	9
 501 006b 01       		.byte	1
 502 006c 0A       		.byte	10
 503 006d 24       		.byte	36
 504 006e 0D       		.byte	13
 505 006f 22       		.byte	34
 506 0070 0E       		.byte	14
 507 0071 01       		.byte	1
 508 0072 10       		.byte	16
 509 0073 80       		.byte	-128
 510 0074 13       		.byte	19
 511 0075 60       		.byte	96
 512 0076 15       		.byte	21
 513 0077 08       		.byte	8
 514 0078 19       		.byte	25
 515 0079 A2       		.byte	-94
 516 007a 1A       		.byte	26
 517 007b 01       		.byte	1
 518 007c 1B       		.byte	27
 519 007d 08       		.byte	8
 520 007e 1D       		.byte	29
 521 007f 10       		.byte	16
 522 0080 1E       		.byte	30
 523 0081 02       		.byte	2
 524 0082 1F       		.byte	31
 525 0083 05       		.byte	5
 526 0084 21       		.byte	33
 527 0085 04       		.byte	4
 528 0086 23       		.byte	35
 529 0087 48       		.byte	72
 530 0088 27       		.byte	39
 531 0089 40       		.byte	64
 532 008a 29       		.byte	41
 533 008b 24       		.byte	36
 534 008c 2A       		.byte	42
 535 008d 01       		.byte	1
 536 008e 31       		.byte	49
 537 008f 10       		.byte	16
 538 0090 33       		.byte	51
 539 0091 4A       		.byte	74
 540 0092 38       		.byte	56
 541 0093 20       		.byte	32
 542 0094 3A       		.byte	58
 543 0095 02       		.byte	2
 544 0096 3B       		.byte	59
 545 0097 40       		.byte	64
 546 0098 40       		.byte	64
 547 0099 D1       		.byte	-47
 548 009a 43       		.byte	67
 549 009b 02       		.byte	2
 550 009c 49       		.byte	73
 551 009d A0       		.byte	-96
ARM GAS  C:\Users\Gary\AppData\Local\Temp\ccEjXQUu.s 			page 22


 552 009e 50       		.byte	80
 553 009f 01       		.byte	1
 554 00a0 51       		.byte	81
 555 00a1 20       		.byte	32
 556 00a2 5B       		.byte	91
 557 00a3 08       		.byte	8
 558 00a4 5D       		.byte	93
 559 00a5 02       		.byte	2
 560 00a6 67       		.byte	103
 561 00a7 0A       		.byte	10
 562 00a8 69       		.byte	105
 563 00a9 14       		.byte	20
 564 00aa 6A       		.byte	106
 565 00ab 80       		.byte	-128
 566 00ac 70       		.byte	112
 567 00ad 90       		.byte	-112
 568 00ae 71       		.byte	113
 569 00af 04       		.byte	4
 570 00b0 72       		.byte	114
 571 00b1 06       		.byte	6
 572 00b2 73       		.byte	115
 573 00b3 20       		.byte	32
 574 00b4 80       		.byte	-128
 575 00b5 10       		.byte	16
 576 00b6 83       		.byte	-125
 577 00b7 40       		.byte	64
 578 00b8 C0       		.byte	-64
 579 00b9 9F       		.byte	-97
 580 00ba C2       		.byte	-62
 581 00bb DF       		.byte	-33
 582 00bc C4       		.byte	-60
 583 00bd 2B       		.byte	43
 584 00be CA       		.byte	-54
 585 00bf 07       		.byte	7
 586 00c0 CC       		.byte	-52
 587 00c1 0F       		.byte	15
 588 00c2 CE       		.byte	-50
 589 00c3 0D       		.byte	13
 590 00c4 D0       		.byte	-48
 591 00c5 0B       		.byte	11
 592 00c6 D2       		.byte	-46
 593 00c7 0C       		.byte	12
 594 00c8 D6       		.byte	-42
 595 00c9 82       		.byte	-126
 596 00ca D8       		.byte	-40
 597 00cb 30       		.byte	48
 598 00cc 00       		.byte	0
 599 00cd 10       		.byte	16
 600 00ce 01       		.byte	1
 601 00cf 80       		.byte	-128
 602 00d0 02       		.byte	2
 603 00d1 AC       		.byte	-84
 604 00d2 03       		.byte	3
 605 00d3 13       		.byte	19
 606 00d4 04       		.byte	4
 607 00d5 14       		.byte	20
 608 00d6 08       		.byte	8
ARM GAS  C:\Users\Gary\AppData\Local\Temp\ccEjXQUu.s 			page 23


 609 00d7 DC       		.byte	-36
 610 00d8 0A       		.byte	10
 611 00d9 22       		.byte	34
 612 00da 0B       		.byte	11
 613 00db 08       		.byte	8
 614 00dc 12       		.byte	18
 615 00dd 03       		.byte	3
 616 00de 13       		.byte	19
 617 00df 0C       		.byte	12
 618 00e0 14       		.byte	20
 619 00e1 0C       		.byte	12
 620 00e2 15       		.byte	21
 621 00e3 2C       		.byte	44
 622 00e4 16       		.byte	22
 623 00e5 71       		.byte	113
 624 00e6 17       		.byte	23
 625 00e7 43       		.byte	67
 626 00e8 1E       		.byte	30
 627 00e9 20       		.byte	32
 628 00ea 20       		.byte	32
 629 00eb 09       		.byte	9
 630 00ec 22       		.byte	34
 631 00ed D0       		.byte	-48
 632 00ee 24       		.byte	36
 633 00ef 10       		.byte	16
 634 00f0 26       		.byte	38
 635 00f1 40       		.byte	64
 636 00f2 29       		.byte	41
 637 00f3 71       		.byte	113
 638 00f4 2B       		.byte	43
 639 00f5 0E       		.byte	14
 640 00f6 2D       		.byte	45
 641 00f7 71       		.byte	113
 642 00f8 2F       		.byte	47
 643 00f9 06       		.byte	6
 644 00fa 30       		.byte	48
 645 00fb 1F       		.byte	31
 646 00fc 32       		.byte	50
 647 00fd E0       		.byte	-32
 648 00fe 33       		.byte	51
 649 00ff 30       		.byte	48
 650 0100 35       		.byte	53
 651 0101 0F       		.byte	15
 652 0102 37       		.byte	55
 653 0103 C0       		.byte	-64
 654 0104 39       		.byte	57
 655 0105 88       		.byte	-120
 656 0106 3A       		.byte	58
 657 0107 08       		.byte	8
 658 0108 3B       		.byte	59
 659 0109 20       		.byte	32
 660 010a 3F       		.byte	63
 661 010b 04       		.byte	4
 662 010c 40       		.byte	64
 663 010d 02       		.byte	2
 664 010e 46       		.byte	70
 665 010f 40       		.byte	64
ARM GAS  C:\Users\Gary\AppData\Local\Temp\ccEjXQUu.s 			page 24


 666 0110 49       		.byte	73
 667 0111 FF       		.byte	-1
 668 0112 4A       		.byte	74
 669 0113 07       		.byte	7
 670 0114 4B       		.byte	75
 671 0115 FF       		.byte	-1
 672 0116 4C       		.byte	76
 673 0117 40       		.byte	64
 674 0118 4D       		.byte	77
 675 0119 20       		.byte	32
 676 011a 4E       		.byte	78
 677 011b F0       		.byte	-16
 678 011c 4F       		.byte	79
 679 011d 05       		.byte	5
 680 011e 50       		.byte	80
 681 011f 08       		.byte	8
 682 0120 58       		.byte	88
 683 0121 04       		.byte	4
 684 0122 59       		.byte	89
 685 0123 04       		.byte	4
 686 0124 5A       		.byte	90
 687 0125 04       		.byte	4
 688 0126 5F       		.byte	95
 689 0127 01       		.byte	1
 690 0128 60       		.byte	96
 691 0129 40       		.byte	64
 692 012a 61       		.byte	97
 693 012b A8       		.byte	-88
 694 012c 62       		.byte	98
 695 012d 40       		.byte	64
 696 012e 63       		.byte	99
 697 012f 20       		.byte	32
 698 0130 81       		.byte	-127
 699 0131 01       		.byte	1
 700 0132 82       		.byte	-126
 701 0133 08       		.byte	8
 702 0134 83       		.byte	-125
 703 0135 0A       		.byte	10
 704 0136 84       		.byte	-124
 705 0137 0A       		.byte	10
 706 0138 85       		.byte	-123
 707 0139 02       		.byte	2
 708 013a 86       		.byte	-122
 709 013b 14       		.byte	20
 710 013c 87       		.byte	-121
 711 013d 09       		.byte	9
 712 013e 88       		.byte	-120
 713 013f 20       		.byte	32
 714 0140 89       		.byte	-119
 715 0141 13       		.byte	19
 716 0142 8A       		.byte	-118
 717 0143 C0       		.byte	-64
 718 0144 8E       		.byte	-114
 719 0145 15       		.byte	21
 720 0146 90       		.byte	-112
 721 0147 13       		.byte	19
 722 0148 92       		.byte	-110
ARM GAS  C:\Users\Gary\AppData\Local\Temp\ccEjXQUu.s 			page 25


 723 0149 0C       		.byte	12
 724 014a 94       		.byte	-108
 725 014b 80       		.byte	-128
 726 014c 96       		.byte	-106
 727 014d 20       		.byte	32
 728 014e 98       		.byte	-104
 729 014f 13       		.byte	19
 730 0150 9A       		.byte	-102
 731 0151 04       		.byte	4
 732 0152 9D       		.byte	-99
 733 0153 10       		.byte	16
 734 0154 A0       		.byte	-96
 735 0155 03       		.byte	3
 736 0156 A1       		.byte	-95
 737 0157 20       		.byte	32
 738 0158 A2       		.byte	-94
 739 0159 14       		.byte	20
 740 015a A4       		.byte	-92
 741 015b E0       		.byte	-32
 742 015c A5       		.byte	-91
 743 015d 13       		.byte	19
 744 015e A8       		.byte	-88
 745 015f E0       		.byte	-32
 746 0160 AB       		.byte	-85
 747 0161 04       		.byte	4
 748 0162 AC       		.byte	-84
 749 0163 40       		.byte	64
 750 0164 AE       		.byte	-82
 751 0165 20       		.byte	32
 752 0166 B0       		.byte	-80
 753 0167 0F       		.byte	15
 754 0168 B1       		.byte	-79
 755 0169 10       		.byte	16
 756 016a B3       		.byte	-77
 757 016b 20       		.byte	32
 758 016c B4       		.byte	-76
 759 016d E0       		.byte	-32
 760 016e B5       		.byte	-75
 761 016f 03       		.byte	3
 762 0170 B6       		.byte	-74
 763 0171 10       		.byte	16
 764 0172 B7       		.byte	-73
 765 0173 0C       		.byte	12
 766 0174 BA       		.byte	-70
 767 0175 02       		.byte	2
 768 0176 BE       		.byte	-66
 769 0177 40       		.byte	64
 770 0178 BF       		.byte	-65
 771 0179 44       		.byte	68
 772 017a C0       		.byte	-64
 773 017b 54       		.byte	84
 774 017c C1       		.byte	-63
 775 017d 03       		.byte	3
 776 017e C5       		.byte	-59
 777 017f EB       		.byte	-21
 778 0180 C6       		.byte	-58
 779 0181 0C       		.byte	12
ARM GAS  C:\Users\Gary\AppData\Local\Temp\ccEjXQUu.s 			page 26


 780 0182 C8       		.byte	-56
 781 0183 07       		.byte	7
 782 0184 C9       		.byte	-55
 783 0185 FF       		.byte	-1
 784 0186 CA       		.byte	-54
 785 0187 FF       		.byte	-1
 786 0188 CB       		.byte	-53
 787 0189 FF       		.byte	-1
 788 018a CE       		.byte	-50
 789 018b F0       		.byte	-16
 790 018c CF       		.byte	-49
 791 018d 44       		.byte	68
 792 018e D0       		.byte	-48
 793 018f 0C       		.byte	12
 794 0190 D4       		.byte	-44
 795 0191 01       		.byte	1
 796 0192 D8       		.byte	-40
 797 0193 04       		.byte	4
 798 0194 D9       		.byte	-39
 799 0195 04       		.byte	4
 800 0196 DA       		.byte	-38
 801 0197 04       		.byte	4
 802 0198 DB       		.byte	-37
 803 0199 04       		.byte	4
 804 019a DF       		.byte	-33
 805 019b 01       		.byte	1
 806 019c E6       		.byte	-26
 807 019d C0       		.byte	-64
 808 019e EA       		.byte	-22
 809 019f 40       		.byte	64
 810 01a0 EB       		.byte	-21
 811 01a1 02       		.byte	2
 812 01a2 00       		.byte	0
 813 01a3 04       		.byte	4
 814 01a4 01       		.byte	1
 815 01a5 20       		.byte	32
 816 01a6 02       		.byte	2
 817 01a7 80       		.byte	-128
 818 01a8 03       		.byte	3
 819 01a9 02       		.byte	2
 820 01aa 05       		.byte	5
 821 01ab 06       		.byte	6
 822 01ac 07       		.byte	7
 823 01ad 08       		.byte	8
 824 01ae 0A       		.byte	10
 825 01af 60       		.byte	96
 826 01b0 0B       		.byte	11
 827 01b1 08       		.byte	8
 828 01b2 0D       		.byte	13
 829 01b3 0A       		.byte	10
 830 01b4 0F       		.byte	15
 831 01b5 02       		.byte	2
 832 01b6 10       		.byte	16
 833 01b7 90       		.byte	-112
 834 01b8 11       		.byte	17
 835 01b9 14       		.byte	20
 836 01ba 12       		.byte	18
ARM GAS  C:\Users\Gary\AppData\Local\Temp\ccEjXQUu.s 			page 27


 837 01bb 01       		.byte	1
 838 01bc 16       		.byte	22
 839 01bd 10       		.byte	16
 840 01be 17       		.byte	23
 841 01bf 01       		.byte	1
 842 01c0 19       		.byte	25
 843 01c1 A2       		.byte	-94
 844 01c2 1A       		.byte	26
 845 01c3 40       		.byte	64
 846 01c4 1B       		.byte	27
 847 01c5 20       		.byte	32
 848 01c6 1D       		.byte	29
 849 01c7 0A       		.byte	10
 850 01c8 1F       		.byte	31
 851 01c9 0C       		.byte	12
 852 01ca 20       		.byte	32
 853 01cb 41       		.byte	65
 854 01cc 22       		.byte	34
 855 01cd 14       		.byte	20
 856 01ce 23       		.byte	35
 857 01cf 04       		.byte	4
 858 01d0 24       		.byte	36
 859 01d1 04       		.byte	4
 860 01d2 26       		.byte	38
 861 01d3 80       		.byte	-128
 862 01d4 27       		.byte	39
 863 01d5 29       		.byte	41
 864 01d6 28       		.byte	40
 865 01d7 10       		.byte	16
 866 01d8 29       		.byte	41
 867 01d9 21       		.byte	33
 868 01da 2C       		.byte	44
 869 01db 02       		.byte	2
 870 01dc 2E       		.byte	46
 871 01dd 40       		.byte	64
 872 01de 2F       		.byte	47
 873 01df 08       		.byte	8
 874 01e0 32       		.byte	50
 875 01e1 40       		.byte	64
 876 01e2 37       		.byte	55
 877 01e3 09       		.byte	9
 878 01e4 39       		.byte	57
 879 01e5 10       		.byte	16
 880 01e6 3A       		.byte	58
 881 01e7 01       		.byte	1
 882 01e8 3B       		.byte	59
 883 01e9 04       		.byte	4
 884 01ea 3C       		.byte	60
 885 01eb 20       		.byte	32
 886 01ec 3F       		.byte	63
 887 01ed 02       		.byte	2
 888 01ee 43       		.byte	67
 889 01ef 0A       		.byte	10
 890 01f0 47       		.byte	71
 891 01f1 20       		.byte	32
 892 01f2 48       		.byte	72
 893 01f3 02       		.byte	2
ARM GAS  C:\Users\Gary\AppData\Local\Temp\ccEjXQUu.s 			page 28


 894 01f4 49       		.byte	73
 895 01f5 05       		.byte	5
 896 01f6 50       		.byte	80
 897 01f7 80       		.byte	-128
 898 01f8 54       		.byte	84
 899 01f9 10       		.byte	16
 900 01fa 56       		.byte	86
 901 01fb 10       		.byte	16
 902 01fc 57       		.byte	87
 903 01fd 03       		.byte	3
 904 01fe 59       		.byte	89
 905 01ff 81       		.byte	-127
 906 0200 5A       		.byte	90
 907 0201 08       		.byte	8
 908 0202 5B       		.byte	91
 909 0203 10       		.byte	16
 910 0204 8C       		.byte	-116
 911 0205 80       		.byte	-128
 912 0206 8F       		.byte	-113
 913 0207 10       		.byte	16
 914 0208 91       		.byte	-111
 915 0209 14       		.byte	20
 916 020a 92       		.byte	-110
 917 020b 80       		.byte	-128
 918 020c 94       		.byte	-108
 919 020d 41       		.byte	65
 920 020e 96       		.byte	-106
 921 020f 20       		.byte	32
 922 0210 9A       		.byte	-102
 923 0211 01       		.byte	1
 924 0212 A5       		.byte	-91
 925 0213 02       		.byte	2
 926 0214 A7       		.byte	-89
 927 0215 20       		.byte	32
 928 0216 A9       		.byte	-87
 929 0217 21       		.byte	33
 930 0218 AA       		.byte	-86
 931 0219 01       		.byte	1
 932 021a B6       		.byte	-74
 933 021b 01       		.byte	1
 934 021c C0       		.byte	-64
 935 021d 7F       		.byte	127
 936 021e C2       		.byte	-62
 937 021f BE       		.byte	-66
 938 0220 C4       		.byte	-60
 939 0221 3F       		.byte	63
 940 0222 CA       		.byte	-54
 941 0223 37       		.byte	55
 942 0224 CC       		.byte	-52
 943 0225 C8       		.byte	-56
 944 0226 CE       		.byte	-50
 945 0227 A7       		.byte	-89
 946 0228 D0       		.byte	-48
 947 0229 23       		.byte	35
 948 022a D2       		.byte	-46
 949 022b 08       		.byte	8
 950 022c D6       		.byte	-42
ARM GAS  C:\Users\Gary\AppData\Local\Temp\ccEjXQUu.s 			page 29


 951 022d 0F       		.byte	15
 952 022e EA       		.byte	-22
 953 022f 10       		.byte	16
 954 0230 0A       		.byte	10
 955 0231 40       		.byte	64
 956 0232 5F       		.byte	95
 957 0233 02       		.byte	2
 958 0234 C2       		.byte	-62
 959 0235 10       		.byte	16
 960 0236 D6       		.byte	-42
 961 0237 80       		.byte	-128
 962 0238 AA       		.byte	-86
 963 0239 40       		.byte	64
 964 023a B7       		.byte	-73
 965 023b 02       		.byte	2
 966 023c E8       		.byte	-24
 967 023d 20       		.byte	32
 968 023e 10       		.byte	16
 969 023f 01       		.byte	1
 970 0240 11       		.byte	17
 971 0241 01       		.byte	1
 972 0242 0000     		.space	2
 973              		.type	BS_UDB_0_1_0_CONFIG_VAL.4743, %object
 974              		.size	BS_UDB_0_1_0_CONFIG_VAL.4743, 128
 975              	BS_UDB_0_1_0_CONFIG_VAL.4743:
 976 0244 FF       		.byte	-1
 977 0245 10       		.byte	16
 978 0246 00       		.byte	0
 979 0247 00       		.byte	0
 980 0248 C3       		.byte	-61
 981 0249 00       		.byte	0
 982 024a 00       		.byte	0
 983 024b 00       		.byte	0
 984 024c 0F       		.byte	15
 985 024d 08       		.byte	8
 986 024e F0       		.byte	-16
 987 024f 00       		.byte	0
 988 0250 41       		.byte	65
 989 0251 3C       		.byte	60
 990 0252 00       		.byte	0
 991 0253 42       		.byte	66
 992 0254 F3       		.byte	-13
 993 0255 00       		.byte	0
 994 0256 0C       		.byte	12
 995 0257 03       		.byte	3
 996 0258 82       		.byte	-126
 997 0259 3C       		.byte	60
 998 025a 00       		.byte	0
 999 025b 41       		.byte	65
 1000 025c 04       		.byte	4
 1001 025d 00       		.byte	0
 1002 025e 00       		.byte	0
 1003 025f 04       		.byte	4
 1004 0260 00       		.byte	0
 1005 0261 7F       		.byte	127
 1006 0262 F3       		.byte	-13
 1007 0263 00       		.byte	0
ARM GAS  C:\Users\Gary\AppData\Local\Temp\ccEjXQUu.s 			page 30


 1008 0264 08       		.byte	8
 1009 0265 04       		.byte	4
 1010 0266 00       		.byte	0
 1011 0267 00       		.byte	0
 1012 0268 00       		.byte	0
 1013 0269 18       		.byte	24
 1014 026a 00       		.byte	0
 1015 026b 00       		.byte	0
 1016 026c 0C       		.byte	12
 1017 026d 67       		.byte	103
 1018 026e 00       		.byte	0
 1019 026f 18       		.byte	24
 1020 0270 1C       		.byte	28
 1021 0271 00       		.byte	0
 1022 0272 E3       		.byte	-29
 1023 0273 00       		.byte	0
 1024 0274 C0       		.byte	-64
 1025 0275 1F       		.byte	31
 1026 0276 2C       		.byte	44
 1027 0277 40       		.byte	64
 1028 0278 0F       		.byte	15
 1029 0279 20       		.byte	32
 1030 027a 1C       		.byte	28
 1031 027b 00       		.byte	0
 1032 027c 00       		.byte	0
 1033 027d 08       		.byte	8
 1034 027e 28       		.byte	40
 1035 027f 02       		.byte	2
 1036 0280 00       		.byte	0
 1037 0281 00       		.byte	0
 1038 0282 00       		.byte	0
 1039 0283 10       		.byte	16
 1040 0284 64       		.byte	100
 1041 0285 03       		.byte	3
 1042 0286 05       		.byte	5
 1043 0287 00       		.byte	0
 1044 0288 01       		.byte	1
 1045 0289 00       		.byte	0
 1046 028a E0       		.byte	-32
 1047 028b C0       		.byte	-64
 1048 028c 28       		.byte	40
 1049 028d FF       		.byte	-1
 1050 028e FF       		.byte	-1
 1051 028f FF       		.byte	-1
 1052 0290 62       		.byte	98
 1053 0291 A0       		.byte	-96
 1054 0292 F0       		.byte	-16
 1055 0293 41       		.byte	65
 1056 0294 0C       		.byte	12
 1057 0295 00       		.byte	0
 1058 0296 00       		.byte	0
 1059 0297 00       		.byte	0
 1060 0298 00       		.byte	0
 1061 0299 00       		.byte	0
 1062 029a 02       		.byte	2
 1063 029b 12       		.byte	18
 1064 029c 04       		.byte	4
ARM GAS  C:\Users\Gary\AppData\Local\Temp\ccEjXQUu.s 			page 31


 1065 029d 04       		.byte	4
 1066 029e 04       		.byte	4
 1067 029f 04       		.byte	4
 1068 02a0 00       		.byte	0
 1069 02a1 00       		.byte	0
 1070 02a2 00       		.byte	0
 1071 02a3 01       		.byte	1
 1072 02a4 00       		.byte	0
 1073 02a5 00       		.byte	0
 1074 02a6 00       		.byte	0
 1075 02a7 00       		.byte	0
 1076 02a8 00       		.byte	0
 1077 02a9 00       		.byte	0
 1078 02aa 40       		.byte	64
 1079 02ab 02       		.byte	2
 1080 02ac 00       		.byte	0
 1081 02ad 10       		.byte	16
 1082 02ae 30       		.byte	48
 1083 02af 10       		.byte	16
 1084 02b0 00       		.byte	0
 1085 02b1 10       		.byte	16
 1086 02b2 10       		.byte	16
 1087 02b3 12       		.byte	18
 1088 02b4 00       		.byte	0
 1089 02b5 00       		.byte	0
 1090 02b6 00       		.byte	0
 1091 02b7 00       		.byte	0
 1092 02b8 00       		.byte	0
 1093 02b9 00       		.byte	0
 1094 02ba 00       		.byte	0
 1095 02bb 00       		.byte	0
 1096 02bc 00       		.byte	0
 1097 02bd 00       		.byte	0
 1098 02be 00       		.byte	0
 1099 02bf 00       		.byte	0
 1100 02c0 00       		.byte	0
 1101 02c1 00       		.byte	0
 1102 02c2 00       		.byte	0
 1103 02c3 00       		.byte	0
 1104              		.text
 1105              	.Letext0:
 1106              		.file 2 "c:\\program files (x86)\\cypress\\psoc creator\\3.3\\psoc creator\\import\\gnu\\arm\\4.9.
 1107              		.file 3 ".\\Generated_Source\\PSoC4\\cytypes.h"
 1108              		.file 4 ".\\Generated_Source\\PSoC4\\CyLib.h"