ARM GAS  C:\Users\Gary\AppData\Local\Temp\ccfrU7HK.s 			page 1


   1              		.cpu cortex-m0
   2              		.fpu softvfp
   3              		.eabi_attribute 20, 1
   4              		.eabi_attribute 21, 1
   5              		.eabi_attribute 23, 3
   6              		.eabi_attribute 24, 1
   7              		.eabi_attribute 25, 1
   8              		.eabi_attribute 26, 1
   9              		.eabi_attribute 30, 1
  10              		.eabi_attribute 34, 0
  11              		.eabi_attribute 18, 4
  12              		.code	16
  13              		.file	"main.c"
  14              		.text
  15              	.Ltext0:
  16              		.cfi_sections	.debug_frame
  17              		.section	.text.getCombination,"ax",%progbits
  18              		.align	2
  19              		.global	getCombination
  20              		.code	16
  21              		.thumb_func
  22              		.type	getCombination, %function
  23              	getCombination:
  24              	.LFB33:
  25              		.file 1 ".\\main.c"
   1:.\main.c      **** /* ========================================
   2:.\main.c      ****  *
   3:.\main.c      ****  * Copyright YOUR COMPANY, THE YEAR
   4:.\main.c      ****  * All Rights Reserved
   5:.\main.c      ****  * UNPUBLISHED, LICENSED SOFTWARE.
   6:.\main.c      ****  *
   7:.\main.c      ****  * CONFIDENTIAL AND PROPRIETARY INFORMATION
   8:.\main.c      ****  * WHICH IS THE PROPERTY OF your company.
   9:.\main.c      ****  *
  10:.\main.c      ****  * ========================================
  11:.\main.c      **** */
  12:.\main.c      **** #include <project.h>
  13:.\main.c      **** 
  14:.\main.c      **** int getCombination()
  15:.\main.c      **** {
  26              		.loc 1 15 0
  27              		.cfi_startproc
  28 0000 70B5     		push	{r4, r5, r6, lr}
  29              		.cfi_def_cfa_offset 16
  30              		.cfi_offset 4, -16
  31              		.cfi_offset 5, -12
  32              		.cfi_offset 6, -8
  33              		.cfi_offset 14, -4
  34              	.LVL0:
  16:.\main.c      ****     int currentState = -1; /* Our start state. */
  35              		.loc 1 16 0
  36 0002 0126     		mov	r6, #1
  37 0004 7642     		neg	r6, r6
  38              	.LVL1:
  39              	.L3:
  17:.\main.c      ****     char input;
  18:.\main.c      ****     char temp;
ARM GAS  C:\Users\Gary\AppData\Local\Temp\ccfrU7HK.s 			page 2


  19:.\main.c      ****     while(1){
  20:.\main.c      ****         /* Convoluted method to button pushed by user via UART. */
  21:.\main.c      ****         temp = UART_1_GetChar();
  40              		.loc 1 21 0
  41 0006 FFF7FEFF 		bl	UART_1_GetChar
  42              	.LVL2:
  43 000a 041C     		mov	r4, r0
  44 000c 051C     		mov	r5, r0
  45              	.LVL3:
  22:.\main.c      ****         input = temp;
  23:.\main.c      ****         UART_1_PutString("Enter a number: ");
  46              		.loc 1 23 0
  47 000e 2648     		ldr	r0, .L20
  48 0010 FFF7FEFF 		bl	UART_1_PutString
  49              	.LVL4:
  24:.\main.c      ****         while(input == temp){
  50              		.loc 1 24 0
  51 0014 02E0     		b	.L4
  52              	.LVL5:
  53              	.L5:
  25:.\main.c      ****             input = UART_1_GetChar();    
  54              		.loc 1 25 0
  55 0016 FFF7FEFF 		bl	UART_1_GetChar
  56              	.LVL6:
  57 001a 041C     		mov	r4, r0
  58              	.LVL7:
  59              	.L4:
  24:.\main.c      ****         while(input == temp){
  60              		.loc 1 24 0
  61 001c AC42     		cmp	r4, r5
  62 001e FAD0     		beq	.L5
  26:.\main.c      ****         }
  27:.\main.c      ****         UART_1_PutChar(input);
  63              		.loc 1 27 0
  64 0020 201C     		mov	r0, r4
  65 0022 FFF7FEFF 		bl	UART_1_PutChar
  66              	.LVL8:
  28:.\main.c      ****         UART_1_PutString("\r\n");
  67              		.loc 1 28 0
  68 0026 2148     		ldr	r0, .L20+4
  69 0028 FFF7FEFF 		bl	UART_1_PutString
  70              	.LVL9:
  29:.\main.c      ****         
  30:.\main.c      ****         if(input < '1' || input > '5'){
  71              		.loc 1 30 0
  72 002c 231C     		mov	r3, r4
  73 002e 313B     		sub	r3, r3, #49
  74 0030 DBB2     		uxtb	r3, r3
  75 0032 042B     		cmp	r3, #4
  76 0034 02D9     		bls	.L6
  31:.\main.c      ****             UART_1_PutString("Invalid input \r\n");
  77              		.loc 1 31 0
  78 0036 1E48     		ldr	r0, .L20+8
  79 0038 FFF7FEFF 		bl	UART_1_PutString
  80              	.LVL10:
  81              	.L6:
  32:.\main.c      ****         }
ARM GAS  C:\Users\Gary\AppData\Local\Temp\ccfrU7HK.s 			page 3


  33:.\main.c      ****         
  34:.\main.c      ****         switch(input){
  82              		.loc 1 34 0
  83 003c 313C     		sub	r4, r4, #49
  84              	.LVL11:
  85 003e E3B2     		uxtb	r3, r4
  86 0040 042B     		cmp	r3, #4
  87 0042 E0D8     		bhi	.L3
  88 0044 9C00     		lsl	r4, r3, #2
  89 0046 1B4B     		ldr	r3, .L20+12
  90 0048 1B59     		ldr	r3, [r3, r4]
  91 004a 9F46     		mov	pc, r3
  92              		.section	.rodata
  93              		.align	2
  94              	.L8:
  95 0000 4C000000 		.word	.L7
  96 0004 5A000000 		.word	.L9
  97 0008 68000000 		.word	.L10
  98 000c 76000000 		.word	.L11
  99 0010 84000000 		.word	.L12
 100              		.section	.text.getCombination
 101              	.L7:
  35:.\main.c      ****             case '1':
  36:.\main.c      ****                 if(currentState == 4){
 102              		.loc 1 36 0
 103 004c 042E     		cmp	r6, #4
 104 004e 20D1     		bne	.L15
 105              	.LVL12:
  37:.\main.c      ****                     currentState = 1;
  38:.\main.c      ****                     UART_1_PutString("Current State: 1 \r\n");
 106              		.loc 1 38 0
 107 0050 1948     		ldr	r0, .L20+16
 108 0052 FFF7FEFF 		bl	UART_1_PutString
 109              	.LVL13:
  37:.\main.c      ****                     currentState = 1;
 110              		.loc 1 37 0
 111 0056 033E     		sub	r6, r6, #3
  39:.\main.c      ****                 }else
  40:.\main.c      ****                     return 0;
  41:.\main.c      ****                 break;
 112              		.loc 1 41 0
 113 0058 D5E7     		b	.L3
 114              	.LVL14:
 115              	.L9:
  42:.\main.c      ****             case '2':
  43:.\main.c      ****                 if(currentState == -1){
 116              		.loc 1 43 0
 117 005a 731C     		add	r3, r6, #1
 118 005c 1BD1     		bne	.L16
 119              	.LVL15:
  44:.\main.c      ****                     currentState = 2;
  45:.\main.c      ****                     UART_1_PutString("Current State: 2 \r\n");
 120              		.loc 1 45 0
 121 005e 1748     		ldr	r0, .L20+20
 122 0060 FFF7FEFF 		bl	UART_1_PutString
 123              	.LVL16:
  44:.\main.c      ****                     currentState = 2;
ARM GAS  C:\Users\Gary\AppData\Local\Temp\ccfrU7HK.s 			page 4


 124              		.loc 1 44 0
 125 0064 0336     		add	r6, r6, #3
  46:.\main.c      ****                 }else
  47:.\main.c      ****                     return 0;
  48:.\main.c      ****                 break;
 126              		.loc 1 48 0
 127 0066 CEE7     		b	.L3
 128              	.LVL17:
 129              	.L10:
  49:.\main.c      ****             case '3':
  50:.\main.c      ****                 if(currentState == 5){
 130              		.loc 1 50 0
 131 0068 052E     		cmp	r6, #5
 132 006a 16D1     		bne	.L17
  51:.\main.c      ****                     UART_1_PutString("Current State: UNLOCKED \r\n");
 133              		.loc 1 51 0
 134 006c 1448     		ldr	r0, .L20+24
 135 006e FFF7FEFF 		bl	UART_1_PutString
 136              	.LVL18:
  52:.\main.c      ****                     return 1;
 137              		.loc 1 52 0
 138 0072 0120     		mov	r0, #1
 139 0074 16E0     		b	.L13
 140              	.L11:
  53:.\main.c      ****                 }else
  54:.\main.c      ****                     return 0;
  55:.\main.c      ****                 break;
  56:.\main.c      ****             case '4':
  57:.\main.c      ****                 if(currentState == 2){
 141              		.loc 1 57 0
 142 0076 022E     		cmp	r6, #2
 143 0078 11D1     		bne	.L18
 144              	.LVL19:
  58:.\main.c      ****                     currentState = 4;
  59:.\main.c      ****                     UART_1_PutString("Current State: 4 \r\n");
 145              		.loc 1 59 0
 146 007a 1248     		ldr	r0, .L20+28
 147 007c FFF7FEFF 		bl	UART_1_PutString
 148              	.LVL20:
  58:.\main.c      ****                     currentState = 4;
 149              		.loc 1 58 0
 150 0080 0236     		add	r6, r6, #2
  60:.\main.c      ****                 }else
  61:.\main.c      ****                     return 0;
  62:.\main.c      ****                 break;
 151              		.loc 1 62 0
 152 0082 C0E7     		b	.L3
 153              	.LVL21:
 154              	.L12:
  63:.\main.c      ****             case '5':
  64:.\main.c      ****                 if(currentState == 1){
 155              		.loc 1 64 0
 156 0084 012E     		cmp	r6, #1
 157 0086 0CD1     		bne	.L19
 158              	.LVL22:
  65:.\main.c      ****                     currentState = 5;
  66:.\main.c      ****                     UART_1_PutString("Current State: 5 \r\n");
ARM GAS  C:\Users\Gary\AppData\Local\Temp\ccfrU7HK.s 			page 5


 159              		.loc 1 66 0
 160 0088 0F48     		ldr	r0, .L20+32
 161 008a FFF7FEFF 		bl	UART_1_PutString
 162              	.LVL23:
  65:.\main.c      ****                     currentState = 5;
 163              		.loc 1 65 0
 164 008e 0436     		add	r6, r6, #4
  67:.\main.c      ****                 }else
  68:.\main.c      ****                     return 0;
  69:.\main.c      ****                 break;
 165              		.loc 1 69 0
 166 0090 B9E7     		b	.L3
 167              	.LVL24:
 168              	.L15:
  40:.\main.c      ****                 break;
 169              		.loc 1 40 0
 170 0092 0020     		mov	r0, #0
 171 0094 06E0     		b	.L13
 172              	.L16:
  47:.\main.c      ****                 break;
 173              		.loc 1 47 0
 174 0096 0020     		mov	r0, #0
 175 0098 04E0     		b	.L13
 176              	.L17:
  54:.\main.c      ****                 break;
 177              		.loc 1 54 0
 178 009a 0020     		mov	r0, #0
 179 009c 02E0     		b	.L13
 180              	.L18:
  61:.\main.c      ****                 break;
 181              		.loc 1 61 0
 182 009e 0020     		mov	r0, #0
 183 00a0 00E0     		b	.L13
 184              	.L19:
  68:.\main.c      ****                 break;
 185              		.loc 1 68 0
 186 00a2 0020     		mov	r0, #0
 187              	.L13:
  70:.\main.c      ****             //default:
  71:.\main.c      ****         }
  72:.\main.c      ****     }
  73:.\main.c      **** }
 188              		.loc 1 73 0
 189              		@ sp needed
 190              	.LVL25:
 191 00a4 70BD     		pop	{r4, r5, r6, pc}
 192              	.L21:
 193 00a6 C046     		.align	2
 194              	.L20:
 195 00a8 00000000 		.word	.LC0
 196 00ac 14000000 		.word	.LC2
 197 00b0 18000000 		.word	.LC4
 198 00b4 00000000 		.word	.L8
 199 00b8 2C000000 		.word	.LC7
 200 00bc 40000000 		.word	.LC9
 201 00c0 54000000 		.word	.LC11
 202 00c4 70000000 		.word	.LC13
ARM GAS  C:\Users\Gary\AppData\Local\Temp\ccfrU7HK.s 			page 6


 203 00c8 84000000 		.word	.LC15
 204              		.cfi_endproc
 205              	.LFE33:
 206              		.size	getCombination, .-getCombination
 207              		.section	.text.main,"ax",%progbits
 208              		.align	2
 209              		.global	main
 210              		.code	16
 211              		.thumb_func
 212              		.type	main, %function
 213              	main:
 214              	.LFB34:
  74:.\main.c      **** 
  75:.\main.c      **** int main()
  76:.\main.c      **** {
 215              		.loc 1 76 0
 216              		.cfi_startproc
 217 0000 38B5     		push	{r3, r4, r5, lr}
 218              		.cfi_def_cfa_offset 16
 219              		.cfi_offset 3, -16
 220              		.cfi_offset 4, -12
 221              		.cfi_offset 5, -8
 222              		.cfi_offset 14, -4
  77:.\main.c      ****     CyGlobalIntEnable; /* Enable global interrupts. */
 223              		.loc 1 77 0
 224              	@ 77 ".\main.c" 1
 225 0002 62B6     		CPSIE   i
 226              	@ 0 "" 2
  78:.\main.c      ****     
  79:.\main.c      ****     UART_1_Start();
 227              		.loc 1 79 0
 228              		.code	16
 229 0004 FFF7FEFF 		bl	UART_1_Start
 230              	.LVL26:
  80:.\main.c      ****     
  81:.\main.c      ****     char unlocked = 0; //0 = locked, 1 = unlocked
  82:.\main.c      ****     int attempts = 0;
 231              		.loc 1 82 0
 232 0008 0025     		mov	r5, #0
  81:.\main.c      ****     int attempts = 0;
 233              		.loc 1 81 0
 234 000a 0024     		mov	r4, #0
 235              	.LVL27:
 236              	.L25:
  83:.\main.c      ****     
  84:.\main.c      ****     //int result = 0;
  85:.\main.c      ****     //char in;
  86:.\main.c      ****     
  87:.\main.c      ****     for(;;)
  88:.\main.c      ****     {
  89:.\main.c      ****         if(!unlocked){
 237              		.loc 1 89 0
 238 000c 002C     		cmp	r4, #0
 239 000e 05D1     		bne	.L23
  90:.\main.c      ****             unlocked = getCombination();
 240              		.loc 1 90 0
 241 0010 FFF7FEFF 		bl	getCombination
ARM GAS  C:\Users\Gary\AppData\Local\Temp\ccfrU7HK.s 			page 7


 242              	.LVL28:
 243 0014 C4B2     		uxtb	r4, r0
 244              	.LVL29:
  91:.\main.c      ****             if(!unlocked){
 245              		.loc 1 91 0
 246 0016 002C     		cmp	r4, #0
 247 0018 00D1     		bne	.L23
  92:.\main.c      ****                 attempts++;
 248              		.loc 1 92 0
 249 001a 0135     		add	r5, r5, #1
 250              	.LVL30:
 251              	.L23:
  93:.\main.c      ****             }
  94:.\main.c      ****         }       
  95:.\main.c      ****         if(unlocked){
 252              		.loc 1 95 0
 253 001c 002C     		cmp	r4, #0
 254 001e 08D0     		beq	.L24
  96:.\main.c      ****             if(UART_1_GetChar() == '1'){
 255              		.loc 1 96 0
 256 0020 FFF7FEFF 		bl	UART_1_GetChar
 257              	.LVL31:
 258 0024 3128     		cmp	r0, #49
 259 0026 04D1     		bne	.L24
  97:.\main.c      ****                 UART_1_PutString("Current State: LOCKED \n\r");
 260              		.loc 1 97 0
 261 0028 0548     		ldr	r0, .L26
 262 002a FFF7FEFF 		bl	UART_1_PutString
 263              	.LVL32:
  98:.\main.c      ****                 unlocked = 0;
  99:.\main.c      ****                 attempts = 0;
 264              		.loc 1 99 0
 265 002e 0025     		mov	r5, #0
  98:.\main.c      ****                 unlocked = 0;
 266              		.loc 1 98 0
 267 0030 2C1C     		mov	r4, r5
 268              	.LVL33:
 269              	.L24:
 100:.\main.c      ****             }
 101:.\main.c      ****         }
 102:.\main.c      ****         
 103:.\main.c      ****         if(attempts == 3){
 270              		.loc 1 103 0
 271 0032 032D     		cmp	r5, #3
 272 0034 EAD1     		bne	.L25
 104:.\main.c      ****             UART_1_PutString("PERMANENTLY LOCKED! \r\n");
 273              		.loc 1 104 0
 274 0036 0348     		ldr	r0, .L26+4
 275 0038 FFF7FEFF 		bl	UART_1_PutString
 276              	.LVL34:
 105:.\main.c      ****             return 0;
 106:.\main.c      ****         }
 107:.\main.c      ****     }
 108:.\main.c      **** }
 277              		.loc 1 108 0
 278 003c 0020     		mov	r0, #0
 279              		@ sp needed
ARM GAS  C:\Users\Gary\AppData\Local\Temp\ccfrU7HK.s 			page 8


 280              	.LVL35:
 281              	.LVL36:
 282 003e 38BD     		pop	{r3, r4, r5, pc}
 283              	.L27:
 284              		.align	2
 285              	.L26:
 286 0040 98000000 		.word	.LC17
 287 0044 B4000000 		.word	.LC19
 288              		.cfi_endproc
 289              	.LFE34:
 290              		.size	main, .-main
 291              		.section	.rodata.str1.4,"aMS",%progbits,1
 292              		.align	2
 293              	.LC0:
 294 0000 456E7465 		.ascii	"Enter a number: \000"
 294      72206120 
 294      6E756D62 
 294      65723A20 
 294      00
 295 0011 000000   		.space	3
 296              	.LC2:
 297 0014 0D0A00   		.ascii	"\015\012\000"
 298 0017 00       		.space	1
 299              	.LC4:
 300 0018 496E7661 		.ascii	"Invalid input \015\012\000"
 300      6C696420 
 300      696E7075 
 300      74200D0A 
 300      00
 301 0029 000000   		.space	3
 302              	.LC7:
 303 002c 43757272 		.ascii	"Current State: 1 \015\012\000"
 303      656E7420 
 303      53746174 
 303      653A2031 
 303      200D0A00 
 304              	.LC9:
 305 0040 43757272 		.ascii	"Current State: 2 \015\012\000"
 305      656E7420 
 305      53746174 
 305      653A2032 
 305      200D0A00 
 306              	.LC11:
 307 0054 43757272 		.ascii	"Current State: UNLOCKED \015\012\000"
 307      656E7420 
 307      53746174 
 307      653A2055 
 307      4E4C4F43 
 308 006f 00       		.space	1
 309              	.LC13:
 310 0070 43757272 		.ascii	"Current State: 4 \015\012\000"
 310      656E7420 
 310      53746174 
 310      653A2034 
 310      200D0A00 
 311              	.LC15:
 312 0084 43757272 		.ascii	"Current State: 5 \015\012\000"
ARM GAS  C:\Users\Gary\AppData\Local\Temp\ccfrU7HK.s 			page 9


 312      656E7420 
 312      53746174 
 312      653A2035 
 312      200D0A00 
 313              	.LC17:
 314 0098 43757272 		.ascii	"Current State: LOCKED \012\015\000"
 314      656E7420 
 314      53746174 
 314      653A204C 
 314      4F434B45 
 315 00b1 000000   		.space	3
 316              	.LC19:
 317 00b4 5045524D 		.ascii	"PERMANENTLY LOCKED! \015\012\000"
 317      414E454E 
 317      544C5920 
 317      4C4F434B 
 317      45442120 
 318 00cb 00       		.text
 319              	.Letext0:
 320              		.file 2 "Generated_Source\\PSoC4/cytypes.h"
 321              		.file 3 "Generated_Source\\PSoC4/UART_1.h"