ARM GAS  C:\Users\Gary\AppData\Local\Temp\cc8cLWhO.s 			page 1


   1              		.cpu cortex-m0
   2              		.fpu softvfp
   3              		.eabi_attribute 20, 1
   4              		.eabi_attribute 21, 1
   5              		.eabi_attribute 23, 3
   6              		.eabi_attribute 24, 1
   7              		.eabi_attribute 25, 1
   8              		.eabi_attribute 26, 1
   9              		.eabi_attribute 30, 1
  10              		.eabi_attribute 34, 0
  11              		.eabi_attribute 18, 4
  12              		.code	16
  13              		.file	"main.c"
  14              		.text
  15              	.Ltext0:
  16              		.cfi_sections	.debug_frame
  17              		.section	.text.countBits,"ax",%progbits
  18              		.align	2
  19              		.global	countBits
  20              		.code	16
  21              		.thumb_func
  22              		.type	countBits, %function
  23              	countBits:
  24              	.LFB33:
  25              		.file 1 ".\\main.c"
   1:.\main.c      **** /* ========================================
   2:.\main.c      ****  *
   3:.\main.c      ****  * Copyright YOUR COMPANY, THE YEAR
   4:.\main.c      ****  * All Rights Reserved
   5:.\main.c      ****  * UNPUBLISHED, LICENSED SOFTWARE.
   6:.\main.c      ****  *
   7:.\main.c      ****  * CONFIDENTIAL AND PROPRIETARY INFORMATION
   8:.\main.c      ****  * WHICH IS THE PROPERTY OF your company.
   9:.\main.c      ****  *
  10:.\main.c      ****  * ========================================
  11:.\main.c      **** */
  12:.\main.c      **** #include <project.h>
  13:.\main.c      **** #include <stdio.h>
  14:.\main.c      **** 
  15:.\main.c      **** int countBits(int v)
  16:.\main.c      **** {
  26              		.loc 1 16 0
  27              		.cfi_startproc
  28              	.LVL0:
  29 0000 10B5     		push	{r4, lr}
  30              		.cfi_def_cfa_offset 8
  31              		.cfi_offset 4, -8
  32              		.cfi_offset 14, -4
  33 0002 041C     		mov	r4, r0
  17:.\main.c      ****     //Count those bits
  18:.\main.c      ****     UART_1_PutString("Starting bit count. \n \r");
  34              		.loc 1 18 0
  35 0004 0548     		ldr	r0, .L4
  36              	.LVL1:
  37 0006 FFF7FEFF 		bl	UART_1_PutString
  38              	.LVL2:
  19:.\main.c      ****     int ct = 0;
ARM GAS  C:\Users\Gary\AppData\Local\Temp\cc8cLWhO.s 			page 2


  39              		.loc 1 19 0
  40 000a 0020     		mov	r0, #0
  20:.\main.c      ****     
  21:.\main.c      ****     while(v)
  41              		.loc 1 21 0
  42 000c 03E0     		b	.L2
  43              	.LVL3:
  44              	.L3:
  22:.\main.c      ****     {
  23:.\main.c      ****         ct += v & 1;
  45              		.loc 1 23 0
  46 000e 0123     		mov	r3, #1
  47 0010 2340     		and	r3, r4
  48 0012 C018     		add	r0, r0, r3
  49              	.LVL4:
  24:.\main.c      ****         v >>= 1;
  50              		.loc 1 24 0
  51 0014 6410     		asr	r4, r4, #1
  52              	.LVL5:
  53              	.L2:
  21:.\main.c      ****     {
  54              		.loc 1 21 0
  55 0016 002C     		cmp	r4, #0
  56 0018 F9D1     		bne	.L3
  25:.\main.c      ****     }
  26:.\main.c      ****     return ct;
  27:.\main.c      ****     
  28:.\main.c      **** }
  57              		.loc 1 28 0
  58              		@ sp needed
  59              	.LVL6:
  60 001a 10BD     		pop	{r4, pc}
  61              	.L5:
  62              		.align	2
  63              	.L4:
  64 001c 00000000 		.word	.LC0
  65              		.cfi_endproc
  66              	.LFE33:
  67              		.size	countBits, .-countBits
  68              		.section	.text.main,"ax",%progbits
  69              		.align	2
  70              		.global	main
  71              		.code	16
  72              		.thumb_func
  73              		.type	main, %function
  74              	main:
  75              	.LFB34:
  29:.\main.c      **** 
  30:.\main.c      **** int main()
  31:.\main.c      **** {
  76              		.loc 1 31 0
  77              		.cfi_startproc
  78 0000 10B5     		push	{r4, lr}
  79              		.cfi_def_cfa_offset 8
  80              		.cfi_offset 4, -8
  81              		.cfi_offset 14, -4
  82 0002 84B0     		sub	sp, sp, #16
ARM GAS  C:\Users\Gary\AppData\Local\Temp\cc8cLWhO.s 			page 3


  83              		.cfi_def_cfa_offset 24
  32:.\main.c      ****     CyGlobalIntEnable; /* Enable global interrupts. */
  84              		.loc 1 32 0
  85              	@ 32 ".\main.c" 1
  86 0004 62B6     		CPSIE   i
  87              	@ 0 "" 2
  33:.\main.c      ****     UART_1_Start();
  88              		.loc 1 33 0
  89              		.code	16
  90 0006 FFF7FEFF 		bl	UART_1_Start
  91              	.LVL7:
  34:.\main.c      ****     UART_1_PutString("Connection established. \n \r");
  92              		.loc 1 34 0
  93 000a 0A48     		ldr	r0, .L8
  94 000c FFF7FEFF 		bl	UART_1_PutString
  95              	.LVL8:
  35:.\main.c      ****     /* Place your initialization/startup code here (e.g. MyInst_Start()) */
  36:.\main.c      **** 
  37:.\main.c      ****     int v = 0x8;
  38:.\main.c      ****     int count = countBits(v);
  96              		.loc 1 38 0
  97 0010 0820     		mov	r0, #8
  98 0012 FFF7FEFF 		bl	countBits
  99              	.LVL9:
 100 0016 041C     		mov	r4, r0
 101              	.LVL10:
  39:.\main.c      ****     
  40:.\main.c      ****     char str[15];    
  41:.\main.c      ****     
  42:.\main.c      ****     sprintf(str, "%d", count);
 102              		.loc 1 42 0
 103 0018 6846     		mov	r0, sp
 104              	.LVL11:
 105 001a 0749     		ldr	r1, .L8+4
 106 001c 221C     		mov	r2, r4
 107 001e FFF7FEFF 		bl	sprintf
 108              	.LVL12:
  43:.\main.c      ****     UART_1_PutString(str);
 109              		.loc 1 43 0
 110 0022 6846     		mov	r0, sp
 111 0024 FFF7FEFF 		bl	UART_1_PutString
 112              	.LVL13:
  44:.\main.c      ****     if(count == 1){
 113              		.loc 1 44 0
 114 0028 012C     		cmp	r4, #1
 115 002a 02D1     		bne	.L7
  45:.\main.c      ****         UART_1_PutString("It's a power of two! \n \r");
 116              		.loc 1 45 0
 117 002c 0348     		ldr	r0, .L8+8
 118 002e FFF7FEFF 		bl	UART_1_PutString
 119              	.LVL14:
 120              	.L7:
  46:.\main.c      ****     }
  47:.\main.c      ****     
  48:.\main.c      ****     for(;;)
  49:.\main.c      ****     {
  50:.\main.c      ****         
ARM GAS  C:\Users\Gary\AppData\Local\Temp\cc8cLWhO.s 			page 4


  51:.\main.c      ****     }
 121              		.loc 1 51 0 discriminator 1
 122 0032 FEE7     		b	.L7
 123              	.L9:
 124              		.align	2
 125              	.L8:
 126 0034 18000000 		.word	.LC2
 127 0038 34000000 		.word	.LC4
 128 003c 38000000 		.word	.LC6
 129              		.cfi_endproc
 130              	.LFE34:
 131              		.size	main, .-main
 132              		.section	.rodata.str1.4,"aMS",%progbits,1
 133              		.align	2
 134              	.LC0:
 135 0000 53746172 		.ascii	"Starting bit count. \012 \015\000"
 135      74696E67 
 135      20626974 
 135      20636F75 
 135      6E742E20 
 136              	.LC2:
 137 0018 436F6E6E 		.ascii	"Connection established. \012 \015\000"
 137      65637469 
 137      6F6E2065 
 137      73746162 
 137      6C697368 
 138              	.LC4:
 139 0034 256400   		.ascii	"%d\000"
 140 0037 00       		.space	1
 141              	.LC6:
 142 0038 49742773 		.ascii	"It's a power of two! \012 \015\000"
 142      20612070 
 142      6F776572 
 142      206F6620 
 142      74776F21 
 143 0051 000000   		.text
 144              	.Letext0:
 145              		.file 2 "Generated_Source\\PSoC4/UART_1.h"
 146              		.file 3 "c:\\program files (x86)\\cypress\\psoc creator\\3.3\\psoc creator\\import\\gnu\\arm\\4.9.
 147              		.file 4 "Generated_Source\\PSoC4/cytypes.h"