ARM GAS  C:\Users\Gary\AppData\Local\Temp\ccMpYBeb.s 			page 1


   1              		.cpu cortex-m0
   2              		.fpu softvfp
   3              		.eabi_attribute 20, 1
   4              		.eabi_attribute 21, 1
   5              		.eabi_attribute 23, 3
   6              		.eabi_attribute 24, 1
   7              		.eabi_attribute 25, 1
   8              		.eabi_attribute 26, 1
   9              		.eabi_attribute 30, 1
  10              		.eabi_attribute 34, 0
  11              		.eabi_attribute 18, 4
  12              		.code	16
  13              		.file	"main.c"
  14              		.text
  15              	.Ltext0:
  16              		.cfi_sections	.debug_frame
  17              		.section	.text.uartISR,"ax",%progbits
  18              		.align	2
  19              		.global	uartISR
  20              		.code	16
  21              		.thumb_func
  22              		.type	uartISR, %function
  23              	uartISR:
  24              	.LFB33:
  25              		.file 1 ".\\main.c"
   1:.\main.c      **** /* ========================================
   2:.\main.c      ****  *
   3:.\main.c      ****  * Copyright YOUR COMPANY, THE YEAR
   4:.\main.c      ****  * All Rights Reserved
   5:.\main.c      ****  * UNPUBLISHED, LICENSED SOFTWARE.
   6:.\main.c      ****  *
   7:.\main.c      ****  * CONFIDENTIAL AND PROPRIETARY INFORMATION
   8:.\main.c      ****  * WHICH IS THE PROPERTY OF your company.
   9:.\main.c      ****  *
  10:.\main.c      ****  * ========================================
  11:.\main.c      **** */
  12:.\main.c      **** #include <project.h>
  13:.\main.c      **** 
  14:.\main.c      **** int currentSpeed = 1;
  15:.\main.c      **** int state = 1;
  16:.\main.c      **** 
  17:.\main.c      **** CY_ISR(uartISR)
  18:.\main.c      **** {
  26              		.loc 1 18 0
  27              		.cfi_startproc
  28 0000 10B5     		push	{r4, lr}
  29              		.cfi_def_cfa_offset 8
  30              		.cfi_offset 4, -8
  31              		.cfi_offset 14, -4
  19:.\main.c      ****     uint32 rxData;
  20:.\main.c      ****     rxData = UART_1_GetChar();
  32              		.loc 1 20 0
  33 0002 FFF7FEFF 		bl	UART_1_GetChar
  34              	.LVL0:
  35 0006 041C     		mov	r4, r0
  36              	.LVL1:
  21:.\main.c      ****     UART_1_PutChar(rxData);
ARM GAS  C:\Users\Gary\AppData\Local\Temp\ccMpYBeb.s 			page 2


  37              		.loc 1 21 0
  38 0008 FFF7FEFF 		bl	UART_1_PutChar
  39              	.LVL2:
  22:.\main.c      ****     UART_1_PutString("\n\r");
  40              		.loc 1 22 0
  41 000c 0B48     		ldr	r0, .L4
  42 000e FFF7FEFF 		bl	UART_1_PutString
  43              	.LVL3:
  23:.\main.c      ****     
  24:.\main.c      ****     if(rxData >= '1' && rxData <= '5' && state == 1){
  44              		.loc 1 24 0
  45 0012 231C     		mov	r3, r4
  46 0014 313B     		sub	r3, r3, #49
  47 0016 042B     		cmp	r3, #4
  48 0018 07D8     		bhi	.L2
  49              		.loc 1 24 0 is_stmt 0 discriminator 1
  50 001a 094B     		ldr	r3, .L4+4
  51 001c 1B68     		ldr	r3, [r3]
  52 001e 012B     		cmp	r3, #1
  53 0020 03D1     		bne	.L2
  25:.\main.c      ****         currentSpeed = (int) rxData - '0';
  54              		.loc 1 25 0 is_stmt 1
  55 0022 303C     		sub	r4, r4, #48
  56              	.LVL4:
  57 0024 064B     		ldr	r3, .L4+4
  58 0026 5C60     		str	r4, [r3, #4]
  59 0028 05E0     		b	.L3
  60              	.LVL5:
  61              	.L2:
  26:.\main.c      ****     }else{
  27:.\main.c      ****         UART_1_PutString("Please input a value between 1 and 5 or enable input mode.");
  62              		.loc 1 27 0
  63 002a 0648     		ldr	r0, .L4+8
  64 002c FFF7FEFF 		bl	UART_1_PutString
  65              	.LVL6:
  28:.\main.c      ****         UART_1_PutString("\n\r");
  66              		.loc 1 28 0
  67 0030 0248     		ldr	r0, .L4
  68 0032 FFF7FEFF 		bl	UART_1_PutString
  69              	.LVL7:
  70              	.L3:
  29:.\main.c      ****     }
  30:.\main.c      ****     UART_1_ClearRxBuffer();
  71              		.loc 1 30 0
  72 0036 FFF7FEFF 		bl	UART_1_ClearRxBuffer
  73              	.LVL8:
  31:.\main.c      **** }
  74              		.loc 1 31 0
  75              		@ sp needed
  76 003a 10BD     		pop	{r4, pc}
  77              	.L5:
  78              		.align	2
  79              	.L4:
  80 003c 00000000 		.word	.LC0
  81 0040 00000000 		.word	.LANCHOR0
  82 0044 04000000 		.word	.LC3
  83              		.cfi_endproc
ARM GAS  C:\Users\Gary\AppData\Local\Temp\ccMpYBeb.s 			page 3


  84              	.LFE33:
  85              		.size	uartISR, .-uartISR
  86              		.section	.text.switchISR,"ax",%progbits
  87              		.align	2
  88              		.global	switchISR
  89              		.code	16
  90              		.thumb_func
  91              		.type	switchISR, %function
  92              	switchISR:
  93              	.LFB34:
  32:.\main.c      **** 
  33:.\main.c      **** 
  34:.\main.c      **** CY_ISR(switchISR)
  35:.\main.c      **** {
  94              		.loc 1 35 0
  95              		.cfi_startproc
  96 0000 08B5     		push	{r3, lr}
  97              		.cfi_def_cfa_offset 8
  98              		.cfi_offset 3, -8
  99              		.cfi_offset 14, -4
  36:.\main.c      ****     CyDelay(50);
 100              		.loc 1 36 0
 101 0002 3220     		mov	r0, #50
 102 0004 FFF7FEFF 		bl	CyDelay
 103              	.LVL9:
 104              	.L7:
  37:.\main.c      ****     while(!SW_Read());
 105              		.loc 1 37 0 discriminator 1
 106 0008 FFF7FEFF 		bl	SW_Read
 107              	.LVL10:
 108 000c 0028     		cmp	r0, #0
 109 000e FBD0     		beq	.L7
  38:.\main.c      ****     CyDelay(50);
 110              		.loc 1 38 0
 111 0010 3220     		mov	r0, #50
 112 0012 FFF7FEFF 		bl	CyDelay
 113              	.LVL11:
  39:.\main.c      ****     
  40:.\main.c      ****     if(state == 1){
 114              		.loc 1 40 0
 115 0016 0D4B     		ldr	r3, .L10
 116 0018 1B68     		ldr	r3, [r3]
 117 001a 012B     		cmp	r3, #1
 118 001c 09D1     		bne	.L8
  41:.\main.c      ****         state = 0;
 119              		.loc 1 41 0
 120 001e 0022     		mov	r2, #0
 121 0020 0A4B     		ldr	r3, .L10
 122 0022 1A60     		str	r2, [r3]
  42:.\main.c      ****         UART_1_PutString("Input mode DISABLED.");
 123              		.loc 1 42 0
 124 0024 0A48     		ldr	r0, .L10+4
 125 0026 FFF7FEFF 		bl	UART_1_PutString
 126              	.LVL12:
  43:.\main.c      ****         UART_1_PutString("\n\r");
 127              		.loc 1 43 0
 128 002a 0A48     		ldr	r0, .L10+8
ARM GAS  C:\Users\Gary\AppData\Local\Temp\ccMpYBeb.s 			page 4


 129 002c FFF7FEFF 		bl	UART_1_PutString
 130              	.LVL13:
 131 0030 08E0     		b	.L9
 132              	.L8:
  44:.\main.c      ****     }else{
  45:.\main.c      ****         UART_1_PutString("INPUT mode ENABLED.");
 133              		.loc 1 45 0
 134 0032 0948     		ldr	r0, .L10+12
 135 0034 FFF7FEFF 		bl	UART_1_PutString
 136              	.LVL14:
  46:.\main.c      ****         UART_1_PutString("\n\r");
 137              		.loc 1 46 0
 138 0038 0648     		ldr	r0, .L10+8
 139 003a FFF7FEFF 		bl	UART_1_PutString
 140              	.LVL15:
  47:.\main.c      ****         state = 1;
 141              		.loc 1 47 0
 142 003e 0122     		mov	r2, #1
 143 0040 024B     		ldr	r3, .L10
 144 0042 1A60     		str	r2, [r3]
 145              	.L9:
  48:.\main.c      ****     }
  49:.\main.c      ****     
  50:.\main.c      ****     SW_ClearInterrupt();
 146              		.loc 1 50 0
 147 0044 FFF7FEFF 		bl	SW_ClearInterrupt
 148              	.LVL16:
  51:.\main.c      **** }
 149              		.loc 1 51 0
 150              		@ sp needed
 151 0048 08BD     		pop	{r3, pc}
 152              	.L11:
 153 004a C046     		.align	2
 154              	.L10:
 155 004c 00000000 		.word	.LANCHOR0
 156 0050 40000000 		.word	.LC6
 157 0054 00000000 		.word	.LC0
 158 0058 58000000 		.word	.LC9
 159              		.cfi_endproc
 160              	.LFE34:
 161              		.size	switchISR, .-switchISR
 162              		.section	.text.main,"ax",%progbits
 163              		.align	2
 164              		.global	main
 165              		.code	16
 166              		.thumb_func
 167              		.type	main, %function
 168              	main:
 169              	.LFB35:
  52:.\main.c      **** 
  53:.\main.c      **** int main()
  54:.\main.c      **** {
 170              		.loc 1 54 0
 171              		.cfi_startproc
 172 0000 08B5     		push	{r3, lr}
 173              		.cfi_def_cfa_offset 8
 174              		.cfi_offset 3, -8
ARM GAS  C:\Users\Gary\AppData\Local\Temp\ccMpYBeb.s 			page 5


 175              		.cfi_offset 14, -4
  55:.\main.c      ****     CyGlobalIntDisable;
 176              		.loc 1 55 0
 177              	@ 55 ".\main.c" 1
 178 0002 72B6     		CPSID   i
 179              	@ 0 "" 2
  56:.\main.c      ****     UART_Int_Start();
 180              		.loc 1 56 0
 181              		.code	16
 182 0004 FFF7FEFF 		bl	UART_Int_Start
 183              	.LVL17:
  57:.\main.c      ****     UART_Int_SetVector(uartISR);
 184              		.loc 1 57 0
 185 0008 0C48     		ldr	r0, .L14
 186 000a FFF7FEFF 		bl	UART_Int_SetVector
 187              	.LVL18:
  58:.\main.c      ****     
  59:.\main.c      ****     SW_Int_Start();
 188              		.loc 1 59 0
 189 000e FFF7FEFF 		bl	SW_Int_Start
 190              	.LVL19:
  60:.\main.c      ****     SW_Int_SetVector(switchISR);
 191              		.loc 1 60 0
 192 0012 0B48     		ldr	r0, .L14+4
 193 0014 FFF7FEFF 		bl	SW_Int_SetVector
 194              	.LVL20:
  61:.\main.c      ****     CyGlobalIntEnable;
 195              		.loc 1 61 0
 196              	@ 61 ".\main.c" 1
 197 0018 62B6     		CPSIE   i
 198              	@ 0 "" 2
  62:.\main.c      **** 
  63:.\main.c      ****     UART_1_Start();
 199              		.loc 1 63 0
 200              		.code	16
 201 001a FFF7FEFF 		bl	UART_1_Start
 202              	.LVL21:
 203              	.L13:
  64:.\main.c      ****     
  65:.\main.c      ****     for(;;)
  66:.\main.c      ****     {
  67:.\main.c      ****         CyDelay(500*currentSpeed);
 204              		.loc 1 67 0 discriminator 1
 205 001e 094B     		ldr	r3, .L14+8
 206 0020 5868     		ldr	r0, [r3, #4]
 207 0022 FA23     		mov	r3, #250
 208 0024 5B00     		lsl	r3, r3, #1
 209 0026 5843     		mul	r0, r3
 210 0028 FFF7FEFF 		bl	CyDelay
 211              	.LVL22:
  68:.\main.c      ****         LED_Write(!(LED_Read()));
 212              		.loc 1 68 0 discriminator 1
 213 002c FFF7FEFF 		bl	LED_Read
 214              	.LVL23:
 215 0030 4342     		neg	r3, r0
 216 0032 5841     		adc	r0, r0, r3
 217 0034 C0B2     		uxtb	r0, r0
ARM GAS  C:\Users\Gary\AppData\Local\Temp\ccMpYBeb.s 			page 6


 218 0036 FFF7FEFF 		bl	LED_Write
 219              	.LVL24:
  69:.\main.c      ****         
  70:.\main.c      ****     }
 220              		.loc 1 70 0 discriminator 1
 221 003a F0E7     		b	.L13
 222              	.L15:
 223              		.align	2
 224              	.L14:
 225 003c 00000000 		.word	uartISR
 226 0040 00000000 		.word	switchISR
 227 0044 00000000 		.word	.LANCHOR0
 228              		.cfi_endproc
 229              	.LFE35:
 230              		.size	main, .-main
 231              		.global	state
 232              		.global	currentSpeed
 233              		.data
 234              		.align	2
 235              		.set	.LANCHOR0,. + 0
 236              		.type	state, %object
 237              		.size	state, 4
 238              	state:
 239 0000 01000000 		.word	1
 240              		.type	currentSpeed, %object
 241              		.size	currentSpeed, 4
 242              	currentSpeed:
 243 0004 01000000 		.word	1
 244              		.section	.rodata.str1.4,"aMS",%progbits,1
 245              		.align	2
 246              	.LC0:
 247 0000 0A0D00   		.ascii	"\012\015\000"
 248 0003 00       		.space	1
 249              	.LC3:
 250 0004 506C6561 		.ascii	"Please input a value between 1 and 5 or enable inpu"
 250      73652069 
 250      6E707574 
 250      20612076 
 250      616C7565 
 251 0037 74206D6F 		.ascii	"t mode.\000"
 251      64652E00 
 252 003f 00       		.space	1
 253              	.LC6:
 254 0040 496E7075 		.ascii	"Input mode DISABLED.\000"
 254      74206D6F 
 254      64652044 
 254      49534142 
 254      4C45442E 
 255 0055 000000   		.space	3
 256              	.LC9:
 257 0058 494E5055 		.ascii	"INPUT mode ENABLED.\000"
 257      54206D6F 
 257      64652045 
 257      4E41424C 
 257      45442E00 
 258              		.text
 259              	.Letext0:
ARM GAS  C:\Users\Gary\AppData\Local\Temp\ccMpYBeb.s 			page 7


 260              		.file 2 "Generated_Source\\PSoC4/cytypes.h"
 261              		.file 3 "Generated_Source\\PSoC4/UART_1.h"
 262              		.file 4 "Generated_Source\\PSoC4/CyLib.h"
 263              		.file 5 "Generated_Source\\PSoC4/SW.h"
 264              		.file 6 "Generated_Source\\PSoC4/UART_Int.h"
 265              		.file 7 "Generated_Source\\PSoC4/SW_Int.h"
 266              		.file 8 "Generated_Source\\PSoC4/LED.h"