ARM GAS  C:\Users\Gary\AppData\Local\Temp\ccDj7clV.s 			page 1


   1              		.cpu cortex-m0
   2              		.fpu softvfp
   3              		.eabi_attribute 20, 1
   4              		.eabi_attribute 21, 1
   5              		.eabi_attribute 23, 3
   6              		.eabi_attribute 24, 1
   7              		.eabi_attribute 25, 1
   8              		.eabi_attribute 26, 1
   9              		.eabi_attribute 30, 1
  10              		.eabi_attribute 34, 0
  11              		.eabi_attribute 18, 4
  12              		.code	16
  13              		.file	"main.c"
  14              		.text
  15              	.Ltext0:
  16              		.cfi_sections	.debug_frame
  17              		.section	.text.switchISR,"ax",%progbits
  18              		.align	2
  19              		.global	switchISR
  20              		.code	16
  21              		.thumb_func
  22              		.type	switchISR, %function
  23              	switchISR:
  24              	.LFB33:
  25              		.file 1 ".\\main.c"
   1:.\main.c      **** /* ========================================
   2:.\main.c      ****  *
   3:.\main.c      ****  * Copyright YOUR COMPANY, THE YEAR
   4:.\main.c      ****  * All Rights Reserved
   5:.\main.c      ****  * UNPUBLISHED, LICENSED SOFTWARE.
   6:.\main.c      ****  *
   7:.\main.c      ****  * CONFIDENTIAL AND PROPRIETARY INFORMATION
   8:.\main.c      ****  * WHICH IS THE PROPERTY OF your company.
   9:.\main.c      ****  *
  10:.\main.c      ****  * ========================================
  11:.\main.c      **** */
  12:.\main.c      **** #include <project.h>
  13:.\main.c      **** #include <stdio.h>
  14:.\main.c      **** 
  15:.\main.c      **** int frequency = 1;
  16:.\main.c      **** int state = 0; // Increasing
  17:.\main.c      **** 
  18:.\main.c      **** CY_ISR(switchISR)
  19:.\main.c      **** {
  26              		.loc 1 19 0
  27              		.cfi_startproc
  28 0000 08B5     		push	{r3, lr}
  29              		.cfi_def_cfa_offset 8
  30              		.cfi_offset 3, -8
  31              		.cfi_offset 14, -4
  20:.\main.c      ****     
  21:.\main.c      ****     // Debounce
  22:.\main.c      ****     CyDelay(50);
  32              		.loc 1 22 0
  33 0002 3220     		mov	r0, #50
  34 0004 FFF7FEFF 		bl	CyDelay
  35              	.LVL0:
ARM GAS  C:\Users\Gary\AppData\Local\Temp\ccDj7clV.s 			page 2


  36              	.L2:
  23:.\main.c      ****     
  24:.\main.c      ****     while(!SW_Read());
  37              		.loc 1 24 0 discriminator 1
  38 0008 FFF7FEFF 		bl	SW_Read
  39              	.LVL1:
  40 000c 0028     		cmp	r0, #0
  41 000e FBD0     		beq	.L2
  25:.\main.c      ****     CyDelay(50);
  42              		.loc 1 25 0
  43 0010 3220     		mov	r0, #50
  44 0012 FFF7FEFF 		bl	CyDelay
  45              	.LVL2:
  26:.\main.c      ****     
  27:.\main.c      ****     LED_Write(!(LED_Read()));
  46              		.loc 1 27 0
  47 0016 FFF7FEFF 		bl	LED_Read
  48              	.LVL3:
  49 001a 4342     		neg	r3, r0
  50 001c 5841     		adc	r0, r0, r3
  51 001e C0B2     		uxtb	r0, r0
  52 0020 FFF7FEFF 		bl	LED_Write
  53              	.LVL4:
  28:.\main.c      ****     if(frequency == 5){
  54              		.loc 1 28 0
  55 0024 0D4B     		ldr	r3, .L7
  56 0026 1B68     		ldr	r3, [r3]
  57 0028 052B     		cmp	r3, #5
  58 002a 03D1     		bne	.L3
  29:.\main.c      ****             state = 1;
  59              		.loc 1 29 0
  60 002c 0121     		mov	r1, #1
  61 002e 0C4A     		ldr	r2, .L7+4
  62 0030 1160     		str	r1, [r2]
  63 0032 04E0     		b	.L4
  64              	.L3:
  30:.\main.c      ****     }else if(frequency == 1){
  65              		.loc 1 30 0
  66 0034 012B     		cmp	r3, #1
  67 0036 02D1     		bne	.L4
  31:.\main.c      ****         state = 0;
  68              		.loc 1 31 0
  69 0038 0021     		mov	r1, #0
  70 003a 094A     		ldr	r2, .L7+4
  71 003c 1160     		str	r1, [r2]
  72              	.L4:
  32:.\main.c      ****     }
  33:.\main.c      ****     
  34:.\main.c      ****     if(state == 0){
  73              		.loc 1 34 0
  74 003e 084A     		ldr	r2, .L7+4
  75 0040 1268     		ldr	r2, [r2]
  76 0042 002A     		cmp	r2, #0
  77 0044 03D1     		bne	.L5
  35:.\main.c      ****         frequency++;
  78              		.loc 1 35 0
  79 0046 0133     		add	r3, r3, #1
ARM GAS  C:\Users\Gary\AppData\Local\Temp\ccDj7clV.s 			page 3


  80 0048 044A     		ldr	r2, .L7
  81 004a 1360     		str	r3, [r2]
  82 004c 02E0     		b	.L6
  83              	.L5:
  36:.\main.c      ****     }else{
  37:.\main.c      ****         frequency--;
  84              		.loc 1 37 0
  85 004e 013B     		sub	r3, r3, #1
  86 0050 024A     		ldr	r2, .L7
  87 0052 1360     		str	r3, [r2]
  88              	.L6:
  38:.\main.c      ****     }
  39:.\main.c      ****     //printf("Frequency: %i", frequency);
  40:.\main.c      ****         
  41:.\main.c      ****     SW_ClearInterrupt();
  89              		.loc 1 41 0
  90 0054 FFF7FEFF 		bl	SW_ClearInterrupt
  91              	.LVL5:
  42:.\main.c      **** }
  92              		.loc 1 42 0
  93              		@ sp needed
  94 0058 08BD     		pop	{r3, pc}
  95              	.L8:
  96 005a C046     		.align	2
  97              	.L7:
  98 005c 00000000 		.word	.LANCHOR0
  99 0060 00000000 		.word	.LANCHOR1
 100              		.cfi_endproc
 101              	.LFE33:
 102              		.size	switchISR, .-switchISR
 103              		.section	.text.main,"ax",%progbits
 104              		.align	2
 105              		.global	main
 106              		.code	16
 107              		.thumb_func
 108              		.type	main, %function
 109              	main:
 110              	.LFB34:
  43:.\main.c      **** 
  44:.\main.c      **** int main()
  45:.\main.c      **** {
 111              		.loc 1 45 0
 112              		.cfi_startproc
 113 0000 08B5     		push	{r3, lr}
 114              		.cfi_def_cfa_offset 8
 115              		.cfi_offset 3, -8
 116              		.cfi_offset 14, -4
  46:.\main.c      ****     CyGlobalIntDisable; /* Enable global interrupts. */
 117              		.loc 1 46 0
 118              	@ 46 ".\main.c" 1
 119 0002 72B6     		CPSID   i
 120              	@ 0 "" 2
  47:.\main.c      ****     SW_int_Start();
 121              		.loc 1 47 0
 122              		.code	16
 123 0004 FFF7FEFF 		bl	SW_int_Start
 124              	.LVL6:
ARM GAS  C:\Users\Gary\AppData\Local\Temp\ccDj7clV.s 			page 4


  48:.\main.c      ****     // Add ISR to vector table.
  49:.\main.c      ****     SW_int_SetVector(switchISR);
 125              		.loc 1 49 0
 126 0008 0948     		ldr	r0, .L11
 127 000a FFF7FEFF 		bl	SW_int_SetVector
 128              	.LVL7:
  50:.\main.c      ****     CyGlobalIntEnable;
 129              		.loc 1 50 0
 130              	@ 50 ".\main.c" 1
 131 000e 62B6     		CPSIE   i
 132              	@ 0 "" 2
 133              		.code	16
 134              	.L10:
  51:.\main.c      ****     
  52:.\main.c      ****     
  53:.\main.c      ****     for(;;)
  54:.\main.c      ****     {
  55:.\main.c      ****         CyDelay(1000*frequency);
 135              		.loc 1 55 0 discriminator 1
 136 0010 084B     		ldr	r3, .L11+4
 137 0012 1868     		ldr	r0, [r3]
 138 0014 FA23     		mov	r3, #250
 139 0016 9B00     		lsl	r3, r3, #2
 140 0018 5843     		mul	r0, r3
 141 001a FFF7FEFF 		bl	CyDelay
 142              	.LVL8:
  56:.\main.c      ****         LED_Write(!(LED_Read()));
 143              		.loc 1 56 0 discriminator 1
 144 001e FFF7FEFF 		bl	LED_Read
 145              	.LVL9:
 146 0022 4342     		neg	r3, r0
 147 0024 5841     		adc	r0, r0, r3
 148 0026 C0B2     		uxtb	r0, r0
 149 0028 FFF7FEFF 		bl	LED_Write
 150              	.LVL10:
  57:.\main.c      ****     }
 151              		.loc 1 57 0 discriminator 1
 152 002c F0E7     		b	.L10
 153              	.L12:
 154 002e C046     		.align	2
 155              	.L11:
 156 0030 00000000 		.word	switchISR
 157 0034 00000000 		.word	.LANCHOR0
 158              		.cfi_endproc
 159              	.LFE34:
 160              		.size	main, .-main
 161              		.global	state
 162              		.global	frequency
 163              		.data
 164              		.align	2
 165              		.set	.LANCHOR0,. + 0
 166              		.type	frequency, %object
 167              		.size	frequency, 4
 168              	frequency:
 169 0000 01000000 		.word	1
 170              		.bss
 171              		.align	2
ARM GAS  C:\Users\Gary\AppData\Local\Temp\ccDj7clV.s 			page 5


 172              		.set	.LANCHOR1,. + 0
 173              		.type	state, %object
 174              		.size	state, 4
 175              	state:
 176 0000 00000000 		.space	4
 177              		.text
 178              	.Letext0:
 179              		.file 2 "Generated_Source\\PSoC4/cytypes.h"
 180              		.file 3 "Generated_Source\\PSoC4/SW.h"
 181              		.file 4 "Generated_Source\\PSoC4/LED.h"
 182              		.file 5 "Generated_Source\\PSoC4/CyLib.h"
 183              		.file 6 "Generated_Source\\PSoC4/SW_int.h"