ARM GAS  C:\Users\Gary\AppData\Local\Temp\cceRNt5C.s 			page 1


   1              		.cpu cortex-m0
   2              		.fpu softvfp
   3              		.eabi_attribute 20, 1
   4              		.eabi_attribute 21, 1
   5              		.eabi_attribute 23, 3
   6              		.eabi_attribute 24, 1
   7              		.eabi_attribute 25, 1
   8              		.eabi_attribute 26, 1
   9              		.eabi_attribute 30, 1
  10              		.eabi_attribute 34, 0
  11              		.eabi_attribute 18, 4
  12              		.code	16
  13              		.file	"main.c"
  14              		.text
  15              	.Ltext0:
  16              		.cfi_sections	.debug_frame
  17              		.section	.text.WriteHex,"ax",%progbits
  18              		.align	2
  19              		.global	WriteHex
  20              		.code	16
  21              		.thumb_func
  22              		.type	WriteHex, %function
  23              	WriteHex:
  24              	.LFB33:
  25              		.file 1 ".\\main.c"
   1:.\main.c      **** /* ========================================
   2:.\main.c      ****  *
   3:.\main.c      ****  * Copyright YOUR COMPANY, THE YEAR
   4:.\main.c      ****  * All Rights Reserved
   5:.\main.c      ****  * UNPUBLISHED, LICENSED SOFTWARE.
   6:.\main.c      ****  *
   7:.\main.c      ****  * CONFIDENTIAL AND PROPRIETARY INFORMATION
   8:.\main.c      ****  * WHICH IS THE PROPERTY OF your company.
   9:.\main.c      ****  *
  10:.\main.c      ****  * ========================================
  11:.\main.c      **** */
  12:.\main.c      **** #include <project.h>
  13:.\main.c      **** #include <stdio.h>
  14:.\main.c      **** 
  15:.\main.c      **** void WriteHex(int a)
  16:.\main.c      **** {
  26              		.loc 1 16 0
  27              		.cfi_startproc
  28              	.LVL0:
  29 0000 00B5     		push	{lr}
  30              		.cfi_def_cfa_offset 4
  31              		.cfi_offset 14, -4
  32 0002 89B0     		sub	sp, sp, #36
  33              		.cfi_def_cfa_offset 40
  34 0004 021C     		mov	r2, r0
  17:.\main.c      ****     char str[31];
  18:.\main.c      ****     sprintf(str,"%x\n\r",a);
  35              		.loc 1 18 0
  36 0006 6846     		mov	r0, sp
  37              	.LVL1:
  38 0008 0349     		ldr	r1, .L2
  39 000a FFF7FEFF 		bl	sprintf
ARM GAS  C:\Users\Gary\AppData\Local\Temp\cceRNt5C.s 			page 2


  40              	.LVL2:
  19:.\main.c      ****     UART_1_PutString(str);
  41              		.loc 1 19 0
  42 000e 6846     		mov	r0, sp
  43 0010 FFF7FEFF 		bl	UART_1_PutString
  44              	.LVL3:
  20:.\main.c      **** }
  45              		.loc 1 20 0
  46 0014 09B0     		add	sp, sp, #36
  47              		@ sp needed
  48 0016 00BD     		pop	{pc}
  49              	.L3:
  50              		.align	2
  51              	.L2:
  52 0018 00000000 		.word	.LC0
  53              		.cfi_endproc
  54              	.LFE33:
  55              		.size	WriteHex, .-WriteHex
  56              		.section	.text.interleaveBits,"ax",%progbits
  57              		.align	2
  58              		.global	interleaveBits
  59              		.code	16
  60              		.thumb_func
  61              		.type	interleaveBits, %function
  62              	interleaveBits:
  63              	.LFB34:
  21:.\main.c      **** 
  22:.\main.c      **** uint32 interleaveBits(uint16 x, uint16 y)
  23:.\main.c      **** {
  64              		.loc 1 23 0
  65              		.cfi_startproc
  66              	.LVL4:
  67 0000 F0B5     		push	{r4, r5, r6, r7, lr}
  68              		.cfi_def_cfa_offset 20
  69              		.cfi_offset 4, -20
  70              		.cfi_offset 5, -16
  71              		.cfi_offset 6, -12
  72              		.cfi_offset 7, -8
  73              		.cfi_offset 14, -4
  74 0002 8DB0     		sub	sp, sp, #52
  75              		.cfi_def_cfa_offset 72
  76 0004 071C     		mov	r7, r0
  77 0006 0E1C     		mov	r6, r1
  78              	.LVL5:
  24:.\main.c      ****     //UART_1_PutString("Starting bit interleave. \r\n");
  25:.\main.c      ****     int count = 0;
  26:.\main.c      ****     int xCount = 0;
  79              		.loc 1 26 0
  80 0008 0025     		mov	r5, #0
  27:.\main.c      ****     int yCount = 0;
  28:.\main.c      ****     char xChar[1];
  29:.\main.c      ****     char yChar[1];
  30:.\main.c      ****     char strInter[32];
  31:.\main.c      ****     int result;
  32:.\main.c      ****     
  33:.\main.c      ****     //memcpy(xChar, (char*)&x, sizeof(x));
  34:.\main.c      ****     //memcpy(xChar, (char*)&y, sizeof(y));
ARM GAS  C:\Users\Gary\AppData\Local\Temp\cceRNt5C.s 			page 3


  35:.\main.c      ****     
  36:.\main.c      ****     
  37:.\main.c      ****     for(count = 0; count < 16; count = count + 1)
  81              		.loc 1 37 0
  82 000a 0024     		mov	r4, #0
  83 000c 30E0     		b	.L5
  84              	.LVL6:
  85              	.L12:
  38:.\main.c      ****     {
  39:.\main.c      ****         if (count % 2 == 0)
  86              		.loc 1 39 0
  87 000e E307     		lsl	r3, r4, #31
  88 0010 17D4     		bmi	.L6
  89              	.LBB2:
  40:.\main.c      ****         {
  41:.\main.c      ****             uint16 xbit = (1 << xCount) & x;
  90              		.loc 1 41 0
  91 0012 0123     		mov	r3, #1
  92 0014 AB40     		lsl	r3, r3, r5
  93              	.LVL7:
  42:.\main.c      ****             
  43:.\main.c      ****             if (xbit > 0){
  94              		.loc 1 43 0
  95 0016 1F42     		tst	r7, r3
  96 0018 05D0     		beq	.L7
  44:.\main.c      ****                 sprintf( xChar, "%d", 1);
  97              		.loc 1 44 0
  98 001a 0BA8     		add	r0, sp, #44
  99 001c 1B49     		ldr	r1, .L13
 100 001e 0122     		mov	r2, #1
 101 0020 FFF7FEFF 		bl	sprintf
 102              	.LVL8:
 103 0024 04E0     		b	.L8
 104              	.LVL9:
 105              	.L7:
  45:.\main.c      ****             }else{
  46:.\main.c      ****                 sprintf( xChar, "%d", 0);
 106              		.loc 1 46 0
 107 0026 0BA8     		add	r0, sp, #44
 108 0028 1849     		ldr	r1, .L13
 109 002a 0022     		mov	r2, #0
 110 002c FFF7FEFF 		bl	sprintf
 111              	.LVL10:
 112              	.L8:
  47:.\main.c      ****             }
  48:.\main.c      ****             
  49:.\main.c      ****             strcat(strInter, xChar);
 113              		.loc 1 49 0
 114 0030 02A8     		add	r0, sp, #8
 115 0032 0BA9     		add	r1, sp, #44
 116 0034 FFF7FEFF 		bl	strcat
 117              	.LVL11:
  50:.\main.c      ****             xCount = xCount + 1;
 118              		.loc 1 50 0
 119 0038 0135     		add	r5, r5, #1
 120              	.LVL12:
  51:.\main.c      ****             
ARM GAS  C:\Users\Gary\AppData\Local\Temp\cceRNt5C.s 			page 4


  52:.\main.c      ****             UART_1_PutString(yChar);
 121              		.loc 1 52 0
 122 003a 0AA8     		add	r0, sp, #40
 123 003c FFF7FEFF 		bl	UART_1_PutString
 124              	.LVL13:
 125              	.LBE2:
 126 0040 15E0     		b	.L9
 127              	.LVL14:
 128              	.L6:
 129              	.LBB3:
  53:.\main.c      ****         }else
  54:.\main.c      ****         {
  55:.\main.c      ****             uint16 ybit = (1 << xCount) & y;
 130              		.loc 1 55 0
 131 0042 0123     		mov	r3, #1
 132 0044 AB40     		lsl	r3, r3, r5
 133              	.LVL15:
  56:.\main.c      ****             if (ybit > 0){
 134              		.loc 1 56 0
 135 0046 1E42     		tst	r6, r3
 136 0048 05D0     		beq	.L10
  57:.\main.c      ****                 sprintf( yChar, "%d", 1);
 137              		.loc 1 57 0
 138 004a 0AA8     		add	r0, sp, #40
 139 004c 0F49     		ldr	r1, .L13
 140 004e 0122     		mov	r2, #1
 141 0050 FFF7FEFF 		bl	sprintf
 142              	.LVL16:
 143 0054 04E0     		b	.L11
 144              	.LVL17:
 145              	.L10:
  58:.\main.c      ****             }else{
  59:.\main.c      ****                 sprintf( yChar, "%d", 0);
 146              		.loc 1 59 0
 147 0056 0AA8     		add	r0, sp, #40
 148 0058 0C49     		ldr	r1, .L13
 149 005a 0022     		mov	r2, #0
 150 005c FFF7FEFF 		bl	sprintf
 151              	.LVL18:
 152              	.L11:
  60:.\main.c      ****             }
  61:.\main.c      ****             
  62:.\main.c      ****             strcat(strInter, yChar);
 153              		.loc 1 62 0
 154 0060 02A8     		add	r0, sp, #8
 155 0062 0AA9     		add	r1, sp, #40
 156 0064 FFF7FEFF 		bl	strcat
 157              	.LVL19:
  63:.\main.c      ****             yCount = yCount + 1;
  64:.\main.c      ****             
  65:.\main.c      ****             UART_1_PutString(yChar);
 158              		.loc 1 65 0
 159 0068 0AA8     		add	r0, sp, #40
 160 006a FFF7FEFF 		bl	UART_1_PutString
 161              	.LVL20:
 162              	.L9:
 163              	.LBE3:
ARM GAS  C:\Users\Gary\AppData\Local\Temp\cceRNt5C.s 			page 5


  37:.\main.c      ****     {
 164              		.loc 1 37 0 discriminator 2
 165 006e 0134     		add	r4, r4, #1
 166              	.LVL21:
 167              	.L5:
  37:.\main.c      ****     {
 168              		.loc 1 37 0 is_stmt 0 discriminator 1
 169 0070 0F2C     		cmp	r4, #15
 170 0072 CCDD     		ble	.L12
  66:.\main.c      ****             //UART_1_PutString("\n\r");
  67:.\main.c      ****         }
  68:.\main.c      ****     }
  69:.\main.c      ****     
  70:.\main.c      ****     //UART_1_PutString(strInter);
  71:.\main.c      ****     UART_1_PutString("\n\r");
 171              		.loc 1 71 0 is_stmt 1
 172 0074 0648     		ldr	r0, .L13+4
 173 0076 FFF7FEFF 		bl	UART_1_PutString
 174              	.LVL22:
  72:.\main.c      ****     
  73:.\main.c      ****     sscanf(strInter, "%d", &result);
 175              		.loc 1 73 0
 176 007a 02A8     		add	r0, sp, #8
 177 007c 0349     		ldr	r1, .L13
 178 007e 01AA     		add	r2, sp, #4
 179 0080 FFF7FEFF 		bl	sscanf
 180              	.LVL23:
  74:.\main.c      ****     
  75:.\main.c      ****     return result;   
  76:.\main.c      **** }
 181              		.loc 1 76 0
 182 0084 0198     		ldr	r0, [sp, #4]
 183 0086 0DB0     		add	sp, sp, #52
 184              		@ sp needed
 185              	.LVL24:
 186              	.LVL25:
 187 0088 F0BD     		pop	{r4, r5, r6, r7, pc}
 188              	.L14:
 189 008a C046     		.align	2
 190              	.L13:
 191 008c 08000000 		.word	.LC2
 192 0090 0C000000 		.word	.LC4
 193              		.cfi_endproc
 194              	.LFE34:
 195              		.size	interleaveBits, .-interleaveBits
 196              		.section	.text.main,"ax",%progbits
 197              		.align	2
 198              		.global	main
 199              		.code	16
 200              		.thumb_func
 201              		.type	main, %function
 202              	main:
 203              	.LFB35:
  77:.\main.c      **** 
  78:.\main.c      **** int main()
  79:.\main.c      **** {
 204              		.loc 1 79 0
ARM GAS  C:\Users\Gary\AppData\Local\Temp\cceRNt5C.s 			page 6


 205              		.cfi_startproc
 206 0000 08B5     		push	{r3, lr}
 207              		.cfi_def_cfa_offset 8
 208              		.cfi_offset 3, -8
 209              		.cfi_offset 14, -4
  80:.\main.c      ****     CyGlobalIntEnable; /* Enable global interrupts. */
 210              		.loc 1 80 0
 211              	@ 80 ".\main.c" 1
 212 0002 62B6     		CPSIE   i
 213              	@ 0 "" 2
  81:.\main.c      **** 
  82:.\main.c      ****     UART_1_Start();
 214              		.loc 1 82 0
 215              		.code	16
 216 0004 FFF7FEFF 		bl	UART_1_Start
 217              	.LVL26:
  83:.\main.c      ****     UART_1_PutString("Established Communication. \n \r");
 218              		.loc 1 83 0
 219 0008 0348     		ldr	r0, .L17
 220 000a FFF7FEFF 		bl	UART_1_PutString
 221              	.LVL27:
  84:.\main.c      ****     
  85:.\main.c      ****     uint16 x = 0x55;
  86:.\main.c      ****     uint16 y = 0xaa;
  87:.\main.c      ****     uint32 z = interleaveBits(x, y);
 222              		.loc 1 87 0
 223 000e 5520     		mov	r0, #85
 224 0010 AA21     		mov	r1, #170
 225 0012 FFF7FEFF 		bl	interleaveBits
 226              	.LVL28:
 227              	.L16:
  88:.\main.c      ****     //WriteHex(z);
  89:.\main.c      ****     
  90:.\main.c      ****     for(;;)
  91:.\main.c      ****     {
  92:.\main.c      ****         /* Place your application code here. */
  93:.\main.c      ****     }
 228              		.loc 1 93 0 discriminator 1
 229 0016 FEE7     		b	.L16
 230              	.L18:
 231              		.align	2
 232              	.L17:
 233 0018 10000000 		.word	.LC6
 234              		.cfi_endproc
 235              	.LFE35:
 236              		.size	main, .-main
 237              		.section	.rodata.str1.4,"aMS",%progbits,1
 238              		.align	2
 239              	.LC0:
 240 0000 25780A0D 		.ascii	"%x\012\015\000"
 240      00
 241 0005 000000   		.space	3
 242              	.LC2:
 243 0008 256400   		.ascii	"%d\000"
 244 000b 00       		.space	1
 245              	.LC4:
 246 000c 0A0D00   		.ascii	"\012\015\000"
ARM GAS  C:\Users\Gary\AppData\Local\Temp\cceRNt5C.s 			page 7


 247 000f 00       		.space	1
 248              	.LC6:
 249 0010 45737461 		.ascii	"Established Communication. \012 \015\000"
 249      626C6973 
 249      68656420 
 249      436F6D6D 
 249      756E6963 
 250 002f 00       		.text
 251              	.Letext0:
 252              		.file 2 "Generated_Source\\PSoC4/cytypes.h"
 253              		.file 3 "c:\\program files (x86)\\cypress\\psoc creator\\3.3\\psoc creator\\import\\gnu\\arm\\4.9.
 254              		.file 4 "c:\\program files (x86)\\cypress\\psoc creator\\3.3\\psoc creator\\import\\gnu\\arm\\4.9.
 255              		.file 5 "Generated_Source\\PSoC4/UART_1.h"